

Microchip MPLAB XC8 Assembler V2.41 build 20230208172133 
                                                                                               Mon Jan 01 16:21:09 2024

Microchip MPLAB XC8 C Compiler v2.41 (Free license) build 20230208172133 Og1 
     1                           	processor	18F4620
     2                           	fnconf	rparam,??,?,0
     3                           	pagewidth 120
     4                           	opt	flic
     5                           	psect	idataCOMRAM,global,class=CODE,delta=1,noexec
     6                           	psect	idataBANK0,global,class=CODE,delta=1,noexec
     7                           	psect	smallconst,global,reloc=2,class=SMALLCONST,delta=1,noexec
     8                           	psect	cinit,global,reloc=2,class=CODE,delta=1
     9                           	psect	bssCOMRAM,global,class=COMRAM,space=1,delta=1,lowdata,noexec
    10                           	psect	dataCOMRAM,global,class=COMRAM,space=1,delta=1,lowdata,noexec
    11                           	psect	bssBANK0,global,class=BANK0,space=1,delta=1,lowdata,noexec
    12                           	psect	dataBANK0,global,class=BANK0,space=1,delta=1,lowdata,noexec
    13                           	psect	cstackBANK0,global,class=BANK0,space=1,delta=1,lowdata,noexec
    14                           	psect	cstackCOMRAM,global,class=COMRAM,space=1,delta=1,lowdata,noexec
    15                           	psect	text0,global,reloc=2,class=CODE,delta=1
    16                           	psect	text1,global,reloc=2,class=CODE,delta=1
    17                           	psect	text2,global,reloc=2,class=CODE,delta=1
    18                           	psect	text3,global,reloc=2,class=CODE,delta=1
    19                           	psect	text4,global,reloc=2,class=CODE,delta=1
    20                           	psect	text5,global,reloc=2,class=CODE,delta=1
    21                           	psect	text6,global,reloc=2,class=CODE,delta=1
    22                           	psect	text7,global,reloc=2,class=CODE,delta=1
    23                           	psect	text8,global,reloc=2,class=CODE,delta=1
    24                           	psect	text9,global,reloc=2,class=CODE,delta=1
    25                           	psect	text10,global,reloc=2,class=CODE,delta=1
    26                           	psect	text11,global,reloc=2,class=CODE,delta=1
    27                           	psect	text12,global,reloc=2,class=CODE,delta=1
    28                           	psect	text13,global,reloc=2,class=CODE,delta=1
    29                           	psect	text14,global,reloc=2,class=CODE,delta=1
    30                           	psect	text15,global,reloc=2,class=CODE,delta=1
    31                           	psect	text16,global,reloc=2,class=CODE,delta=1
    32                           	psect	text17,global,reloc=2,class=CODE,delta=1
    33                           	psect	text18,global,reloc=2,class=CODE,delta=1
    34                           	psect	text19,global,reloc=2,class=CODE,delta=1
    35                           	psect	text20,global,reloc=2,class=CODE,delta=1
    36                           	psect	text21,global,reloc=2,class=CODE,delta=1
    37                           	psect	text22,global,reloc=2,class=CODE,delta=1
    38                           	psect	text23,global,reloc=2,class=CODE,delta=1
    39                           	psect	text24,global,reloc=2,class=CODE,delta=1
    40                           	psect	intcode,global,reloc=2,class=CODE,delta=1
    41                           	psect	intcode_body,global,reloc=2,class=CODE,delta=1
    42                           	psect	text26,global,reloc=2,class=CODE,delta=1
    43                           	psect	text27,global,reloc=2,class=CODE,delta=1
    44                           	psect	text28,global,reloc=2,class=CODE,delta=1
    45                           	psect	text29,global,reloc=2,class=CODE,delta=1
    46                           	psect	text30,global,reloc=2,class=CODE,delta=1
    47                           	psect	text31,global,reloc=2,class=CODE,delta=1
    48                           	psect	text32,global,reloc=2,class=CODE,delta=1
    49                           	psect	text33,global,reloc=2,class=CODE,delta=1
    50                           	psect	text34,global,reloc=2,class=CODE,delta=1
    51                           	psect	text35,global,reloc=2,class=CODE,delta=1
    52                           	psect	text36,global,reloc=2,class=CODE,delta=1
    53                           	psect	text37,global,reloc=2,class=CODE,delta=1
    54                           	psect	text38,global,reloc=2,class=CODE,delta=1
    55                           	psect	text39,global,reloc=2,class=CODE,delta=1
    56                           	psect	text40,global,reloc=2,class=CODE,delta=1
    57                           	psect	text41,global,reloc=2,class=CODE,delta=1
    58                           	psect	intsave_regs,global,class=BIGRAM,space=1,delta=1,noexec
    59                           	psect	text42,global,reloc=2,class=CODE,delta=1
    60                           	psect	rparam,global,class=COMRAM,space=1,delta=1,noexec
    61                           	psect	temp,global,ovrld,common,class=COMRAM,space=1,delta=1
    62                           	psect	config,global,abs,ovrld,class=CONFIG,space=4,delta=1,noexec
    63   000000                     
    64                           ; Generated 23/03/2023 GMT
    65                           ; 
    66                           ; Copyright © 2023, Microchip Technology Inc. and its subsidiaries ("Microchip")
    67                           ; All rights reserved.
    68                           ; 
    69                           ; This software is developed by Microchip Technology Inc. and its subsidiaries ("Microch
      +                          ip").
    70                           ; 
    71                           ; Redistribution and use in source and binary forms, with or without modification, are
    72                           ; permitted provided that the following conditions are met:
    73                           ; 
    74                           ;     1. Redistributions of source code must retain the above copyright notice, this lis
      +                          t of
    75                           ;        conditions and the following disclaimer.
    76                           ; 
    77                           ;     2. Redistributions in binary form must reproduce the above copyright notice, this 
      +                          list
    78                           ;        of conditions and the following disclaimer in the documentation and/or other
    79                           ;        materials provided with the distribution. Publication is not required when
    80                           ;        this file is used in an embedded application.
    81                           ; 
    82                           ;     3. Microchip's name may not be used to endorse or promote products derived from th
      +                          is
    83                           ;        software without specific prior written permission.
    84                           ; 
    85                           ; THIS SOFTWARE IS PROVIDED BY MICROCHIP "AS IS" AND ANY EXPRESS OR IMPLIED WARRANTIES,
    86                           ; INCLUDING, BUT NOT LIMITED TO, THE IMPLIED WARRANTIES OF MERCHANTABILITY AND FITNESS F
      +                          OR
    87                           ; PURPOSE ARE DISCLAIMED.  IN NO EVENT SHALL MICROCHIP BE LIABLE FOR ANY DIRECT, INDIREC
      +                          T,
    88                           ; INCIDENTAL, SPECIAL, EXEMPLARY, OR CONSEQUENTIAL DAMAGES (INCLUDING BUT NOT LIMITED TO
    89                           ; PROCUREMENT OF SUBSTITUTE GOODS OR SERVICES; LOSS OF USE, DATA OR PROFITS; OR BUSINESS
    90                           ; INTERRUPTION) HOWSOEVER CAUSED AND ON ANY THEORY OF LIABILITY, WHETHER IN CONTRACT, ST
      +                          RICT
    91                           ; LIABILITY, OR TORT (INCLUDING NEGLIGENCE OR OTHERWISE) ARISING IN ANY WAY OUT OF THE U
      +                          SE OF
    92                           ; THIS SOFTWARE, EVEN IF ADVISED OF THE POSSIBILITY OF SUCH DAMAGE.
    93                           ; 
    94                           ; 
    95                           ; Code-generator required, PIC18F4620 Definitions
    96                           ; 
    97                           ; SFR Addresses
    98   000000                     
    99                           	psect	idataCOMRAM
   100   00290C                     __pidataCOMRAM:
   101                           	callstack 0
   102                           
   103                           ;initializer for _lat_reg
   104   00290C  89                 	db	137
   105   00290D  0F                 	db	15
   106   00290E  8A                 	db	138
   107   00290F  0F                 	db	15
   108   002910  8B                 	db	139
   109   002911  0F                 	db	15
   110   002912  8C                 	db	140
   111   002913  0F                 	db	15
   112   002914  8D                 	db	141
   113   002915  0F                 	db	15
   114                           
   115                           ;initializer for _RB4_Flag
   116   002916  0001               	dw	1
   117                           
   118                           ;initializer for _psw_st
   119   002918  01                 	db	1
   120                           
   121                           ;initializer for _keypad
   122   002919  19                 	db	25
   123   00291A  29                 	db	41
   124   00291B  31                 	db	49
   125   00291C  39                 	db	57
   126   00291D  41                 	db	65
   127   00291E  49                 	db	73
   128   00291F  51                 	db	81
   129   002920  61                 	db	97
   130                           
   131                           ;initializer for _lcd_4bit
   132   002921  13                 	db	19
   133   002922  23                 	db	35
   134   002923  2B                 	db	43
   135   002924  33                 	db	51
   136   002925  3B                 	db	59
   137   002926  1B                 	db	27
   138                           
   139                           	psect	idataBANK0
   140   0027BA                     __pidataBANK0:
   141                           	callstack 0
   142                           
   143                           ;initializer for _keypad_val
   144   0027BA  37                 	db	55
   145   0027BB  38                 	db	56
   146   0027BC  39                 	db	57
   147   0027BD  2F                 	db	47
   148   0027BE  34                 	db	52
   149   0027BF  35                 	db	53
   150   0027C0  36                 	db	54
   151   0027C1  2A                 	db	42
   152   0027C2  31                 	db	49
   153   0027C3  32                 	db	50
   154   0027C4  33                 	db	51
   155   0027C5  2D                 	db	45
   156   0027C6  23                 	db	35
   157   0027C7  30                 	db	48
   158   0027C8  3D                 	db	61
   159   0027C9  2B                 	db	43
   160                           
   161                           ;initializer for _port_reg
   162   0027CA  80                 	db	128
   163   0027CB  0F                 	db	15
   164   0027CC  81                 	db	129
   165   0027CD  0F                 	db	15
   166   0027CE  82                 	db	130
   167   0027CF  0F                 	db	15
   168   0027D0  83                 	db	131
   169   0027D1  0F                 	db	15
   170   0027D2  84                 	db	132
   171   0027D3  0F                 	db	15
   172                           
   173                           ;initializer for _tris_reg
   174   0027D4  92                 	db	146
   175   0027D5  0F                 	db	15
   176   0027D6  93                 	db	147
   177   0027D7  0F                 	db	15
   178   0027D8  94                 	db	148
   179   0027D9  0F                 	db	15
   180   0027DA  95                 	db	149
   181   0027DB  0F                 	db	15
   182   0027DC  96                 	db	150
   183   0027DD  0F                 	db	15
   184                           
   185                           ;initializer for _arr
   186   0027DE  30                 	db	48
   187   0027DF  31                 	db	49
   188   0027E0  32                 	db	50
   189   0027E1  33                 	db	51
   190   0027E2  00                 	db	0
   191                           
   192                           ;initializer for _RB_obj_1
   193   0027E3  C4                 	db	low _burrun3_interrupt
   194   0027E4  1F                 	db	high _burrun3_interrupt
   195   0027E5  00                 	db	0
   196   0027E6  00                 	db	0
   197   0027E7  00                 	db	0
   198   0027E8  61                 	db	97
   199                           
   200                           ;initializer for _INT2_obj
   201   0027E9  56                 	db	low _burrun2_interrupt
   202   0027EA  21                 	db	high _burrun2_interrupt
   203   0027EB  02                 	db	2
   204   0027EC  01                 	db	1
   205   0027ED  00                 	db	0
   206   0027EE  51                 	db	81
   207                           
   208                           ;initializer for _INT1_obj
   209   0027EF  4A                 	db	low _burrun1_interrupt
   210   0027F0  20                 	db	high _burrun1_interrupt
   211   0027F1  01                 	db	1
   212   0027F2  01                 	db	1
   213   0027F3  00                 	db	0
   214   0027F4  49                 	db	73
   215                           
   216                           ;initializer for _INT0_obj
   217   0027F5  D0                 	db	low _burrun0_interrupt
   218   0027F6  20                 	db	high _burrun0_interrupt
   219   0027F7  00                 	db	0
   220   0027F8  01                 	db	1
   221   0027F9  00                 	db	0
   222   0027FA  41                 	db	65
   223   000000                     _INTCON2bits	set	4081
   224   000000                     _EECON2	set	4007
   225   000000                     _PORTBbits	set	3969
   226   000000                     _EECON1bits	set	4006
   227   000000                     _EEDATA	set	4008
   228   000000                     _EEADR	set	4009
   229   000000                     _EEADRH	set	4010
   230   000000                     _INTCONbits	set	4082
   231   000000                     _PORTE	set	3972
   232   000000                     _PORTD	set	3971
   233   000000                     _PORTC	set	3970
   234   000000                     _PORTB	set	3969
   235   000000                     _PORTA	set	3968
   236   000000                     _LATA	set	3977
   237   000000                     _TRISA	set	3986
   238   000000                     _INTCON3bits	set	4080
   239   000000                     _TRISE	set	3990
   240   000000                     _TRISD	set	3989
   241   000000                     _TRISC	set	3988
   242   000000                     _TRISB	set	3987
   243   000000                     _LATE	set	3981
   244   000000                     _LATD	set	3980
   245   000000                     _LATC	set	3979
   246   000000                     _LATB	set	3978
   247                           
   248                           	psect	smallconst
   249   001000                     __psmallconst:
   250                           	callstack 0
   251   001000  00                 	db	0
   252   001001                     STR_2:
   253   001001  20                 	db	32
   254   001002  20                 	db	32
   255   001003  20                 	db	32
   256   001004  20                 	db	32
   257   001005  20                 	db	32
   258   001006  54                 	db	84	;'T'
   259   001007  72                 	db	114	;'r'
   260   001008  79                 	db	121	;'y'
   261   001009  20                 	db	32
   262   00100A  41                 	db	65	;'A'
   263   00100B  67                 	db	103	;'g'
   264   00100C  61                 	db	97	;'a'
   265   00100D  69                 	db	105	;'i'
   266   00100E  6E                 	db	110	;'n'
   267   00100F  20                 	db	32
   268   001010  20                 	db	32
   269   001011  20                 	db	32
   270   001012  20                 	db	32
   271   001013  00                 	db	0
   272   001014                     STR_3:
   273   001014  20                 	db	32
   274   001015  20                 	db	32
   275   001016  63                 	db	99	;'c'
   276   001017  6F                 	db	111	;'o'
   277   001018  72                 	db	114	;'r'
   278   001019  72                 	db	114	;'r'
   279   00101A  65                 	db	101	;'e'
   280   00101B  63                 	db	99	;'c'
   281   00101C  74                 	db	116	;'t'
   282   00101D  20                 	db	32
   283   00101E  50                 	db	80	;'P'
   284   00101F  61                 	db	97	;'a'
   285   001020  73                 	db	115	;'s'
   286   001021  73                 	db	115	;'s'
   287   001022  77                 	db	119	;'w'
   288   001023  6F                 	db	111	;'o'
   289   001024  72                 	db	114	;'r'
   290   001025  64                 	db	100	;'d'
   291   001026  00                 	db	0
   292   001027                     STR_1:
   293   001027  49                 	db	73	;'I'
   294   001028  6E                 	db	110	;'n'
   295   001029  63                 	db	99	;'c'
   296   00102A  6F                 	db	111	;'o'
   297   00102B  72                 	db	114	;'r'
   298   00102C  72                 	db	114	;'r'
   299   00102D  65                 	db	101	;'e'
   300   00102E  63                 	db	99	;'c'
   301   00102F  74                 	db	116	;'t'
   302   001030  20                 	db	32
   303   001031  50                 	db	80	;'P'
   304   001032  61                 	db	97	;'a'
   305   001033  73                 	db	115	;'s'
   306   001034  73                 	db	115	;'s'
   307   001035  77                 	db	119	;'w'
   308   001036  6F                 	db	111	;'o'
   309   001037  72                 	db	114	;'r'
   310   001038  64                 	db	100	;'d'
   311   001039  00                 	db	0
   312   00103A                     STR_4:
   313   00103A  25                 	db	37
   314   00103B  69                 	db	105	;'i'
   315   00103C  00                 	db	0
   316   00103D  00                 	db	0	; dummy byte at the end
   317   000000                     
   318                           ; #config settings
   319                           
   320                           	psect	cinit
   321   002572                     __pcinit:
   322                           	callstack 0
   323   002572                     start_initialization:
   324                           	callstack 0
   325   002572                     __initialization:
   326                           	callstack 0
   327                           
   328                           ; Initialize objects allocated to BANK0 (65 bytes)
   329                           ; load TBLPTR registers with __pidataBANK0
   330   002572  0EBA               	movlw	low __pidataBANK0
   331   002574  6EF6               	movwf	tblptrl,c
   332   002576  0E27               	movlw	high __pidataBANK0
   333   002578  6EF7               	movwf	tblptrh,c
   334   00257A  0E00               	movlw	low (__pidataBANK0 shr (0+16))
   335   00257C  6EF8               	movwf	tblptru,c
   336   00257E  EE00  F080         	lfsr	0,__pdataBANK0
   337   002582  EE10 F041          	lfsr	1,65
   338   002586                     copy_data0:
   339   002586  0009               	tblrd		*+
   340   002588  CFF5 FFEE          	movff	tablat,postinc0
   341   00258C  50E5               	movf	postdec1,w,c
   342   00258E  50E1               	movf	fsr1l,w,c
   343   002590  E1FA               	bnz	copy_data0
   344                           
   345                           ; Initialize objects allocated to COMRAM (27 bytes)
   346                           ; load TBLPTR registers with __pidataCOMRAM
   347   002592  0E0C               	movlw	low __pidataCOMRAM
   348   002594  6EF6               	movwf	tblptrl,c
   349   002596  0E29               	movlw	high __pidataCOMRAM
   350   002598  6EF7               	movwf	tblptrh,c
   351   00259A  0E00               	movlw	low (__pidataCOMRAM shr (0+16))
   352   00259C  6EF8               	movwf	tblptru,c
   353   00259E  EE00  F042         	lfsr	0,__pdataCOMRAM
   354   0025A2  EE10 F01B          	lfsr	1,27
   355   0025A6                     copy_data1:
   356   0025A6  0009               	tblrd		*+
   357   0025A8  CFF5 FFEE          	movff	tablat,postinc0
   358   0025AC  50E5               	movf	postdec1,w,c
   359   0025AE  50E1               	movf	fsr1l,w,c
   360   0025B0  E1FA               	bnz	copy_data1
   361                           
   362                           ; Clear objects allocated to BANK0 (17 bytes)
   363   0025B2  EE00  F0E2         	lfsr	0,__pbssBANK0
   364   0025B6  0E11               	movlw	17
   365   0025B8                     clear_0:
   366   0025B8  6AEE               	clrf	postinc0,c
   367   0025BA  06E8               	decf	wreg,f,c
   368   0025BC  E1FD               	bnz	clear_0
   369                           
   370                           ; Clear objects allocated to COMRAM (30 bytes)
   371   0025BE  EE00  F024         	lfsr	0,__pbssCOMRAM
   372   0025C2  0E1E               	movlw	30
   373   0025C4                     clear_1:
   374   0025C4  6AEE               	clrf	postinc0,c
   375   0025C6  06E8               	decf	wreg,f,c
   376   0025C8  E1FD               	bnz	clear_1
   377   0025CA                     end_of_initialization:
   378                           	callstack 0
   379   0025CA                     __end_of__initialization:
   380                           	callstack 0
   381   0025CA  905D               	bcf	int$flags,0,c	;clear compiler interrupt flag (level 1)
   382   0025CC  925D               	bcf	int$flags,1,c	;clear compiler interrupt flag (level 2)
   383   0025CE  0100               	movlb	0
   384   0025D0  EF1F  F008         	goto	_main	;jump to C main() function
   385                           
   386                           	psect	bssCOMRAM
   387   000024                     __pbssCOMRAM:
   388                           	callstack 0
   389   000024                     	ds	4
   390   000028                     _RB7_InterruptHandler_HIGH:
   391                           	callstack 0
   392   000028                     	ds	2
   393   00002A                     _RB7_InterruptHandler_LOW:
   394                           	callstack 0
   395   00002A                     	ds	2
   396   00002C                     _RB6_InterruptHandler_HIGH:
   397                           	callstack 0
   398   00002C                     	ds	2
   399   00002E                     _RB6_InterruptHandler_LOW:
   400                           	callstack 0
   401   00002E                     	ds	2
   402   000030                     _RB5_InterruptHandler_HIGH:
   403                           	callstack 0
   404   000030                     	ds	2
   405   000032                     _RB5_InterruptHandler_LOW:
   406                           	callstack 0
   407   000032                     	ds	2
   408   000034                     _RB4_InterruptHandler_HIGH:
   409                           	callstack 0
   410   000034                     	ds	2
   411   000036                     _RB4_InterruptHandler_LOW:
   412                           	callstack 0
   413   000036                     	ds	2
   414   000038                     _INT2_HUNDLER_INTERRUPT:
   415                           	callstack 0
   416   000038                     	ds	2
   417   00003A                     _INT1_HUNDLER_INTERRUPT:
   418                           	callstack 0
   419   00003A                     	ds	2
   420   00003C                     _INT0_HUNDLER_INTERRUPT:
   421                           	callstack 0
   422   00003C                     	ds	2
   423   00003E                     _cnt_pw:
   424                           	callstack 0
   425   00003E                     	ds	1
   426   00003F                     _cnt:
   427                           	callstack 0
   428   00003F                     	ds	1
   429   000040                     _val:
   430                           	callstack 0
   431   000040                     	ds	1
   432   000041                     _rd_value:
   433                           	callstack 0
   434   000041                     	ds	1
   435                           
   436                           	psect	dataCOMRAM
   437   000042                     __pdataCOMRAM:
   438                           	callstack 0
   439   000042                     _lat_reg:
   440                           	callstack 0
   441   000042                     	ds	10
   442   00004C                     _RB4_Flag:
   443                           	callstack 0
   444   00004C                     	ds	2
   445   00004E                     _psw_st:
   446                           	callstack 0
   447   00004E                     	ds	1
   448   00004F                     _keypad:
   449                           	callstack 0
   450   00004F                     	ds	8
   451   000057                     _lcd_4bit:
   452                           	callstack 0
   453   000057                     	ds	6
   454                           
   455                           	psect	bssBANK0
   456   0000E2                     __pbssBANK0:
   457                           	callstack 0
   458   0000E2                     	ds	11
   459   0000ED                     	ds	6
   460                           
   461                           	psect	dataBANK0
   462   000080                     __pdataBANK0:
   463                           	callstack 0
   464   000080                     _keypad_val:
   465                           	callstack 0
   466   000080                     	ds	16
   467   000090                     _port_reg:
   468                           	callstack 0
   469   000090                     	ds	10
   470   00009A                     _tris_reg:
   471                           	callstack 0
   472   00009A                     	ds	10
   473   0000A4                     _arr:
   474                           	callstack 0
   475   0000A4                     	ds	5
   476   0000A9                     _RB_obj_1:
   477                           	callstack 0
   478   0000A9                     	ds	6
   479   0000AF                     _INT2_obj:
   480                           	callstack 0
   481   0000AF                     	ds	6
   482   0000B5                     _INT1_obj:
   483                           	callstack 0
   484   0000B5                     	ds	6
   485   0000BB                     _INT0_obj:
   486                           	callstack 0
   487   0000BB                     	ds	6
   488                           
   489                           	psect	cstackBANK0
   490   0000C1                     __pcstackBANK0:
   491                           	callstack 0
   492   0000C1                     EEPROM_Write_Data@addrees:
   493                           	callstack 0
   494   0000C1                     gpio_pin_direction_intialize@Pin_Config:
   495                           	callstack 0
   496   0000C1                     gpio_pin_write_logic@Pin_Config:
   497                           	callstack 0
   498   0000C1                     Interrupt_INTx_Enable@int_obj:
   499                           	callstack 0
   500   0000C1                     Interrupt_INTx_Disable@int_obj:
   501                           	callstack 0
   502   0000C1                     Interrupt_INTx_Edge_Init@int_obj:
   503                           	callstack 0
   504   0000C1                     Interrupt_INTx_Clear_Flag@int_obj:
   505                           	callstack 0
   506   0000C1                     INT0_SET_HUNDLER_INTERRUPT@interrupt_hunder:
   507                           	callstack 0
   508   0000C1                     INT1_SET_HUNDLER_INTERRUPT@interrupt_hunder:
   509                           	callstack 0
   510   0000C1                     INT2_SET_HUNDLER_INTERRUPT@interrupt_hunder:
   511                           	callstack 0
   512                           
   513                           ; 2 bytes @ 0x0
   514   0000C1                     	ds	2
   515   0000C3                     ??_gpio_pin_direction_intialize:
   516   0000C3                     ??_Interrupt_INTx_Disable:
   517   0000C3                     ??_Interrupt_INTx_Clear_Flag:
   518   0000C3                     ??_Interrupt_INTx_Edge_Init:
   519   0000C3                     ??_Interrupt_INTx_Enable:
   520   0000C3                     EEPROM_Write_Data@data:
   521                           	callstack 0
   522   0000C3                     gpio_pin_write_logic@logic:
   523                           	callstack 0
   524   0000C3                     INTX_SET_HUNDLER_INTERRUPT@int_obj:
   525                           	callstack 0
   526                           
   527                           ; 2 bytes @ 0x2
   528   0000C3                     	ds	1
   529   0000C4                     ??_gpio_pin_write_logic:
   530                           
   531                           ; 1 bytes @ 0x3
   532   0000C4                     	ds	1
   533   0000C5                     ??_INTX_SET_HUNDLER_INTERRUPT:
   534                           
   535                           ; 1 bytes @ 0x4
   536   0000C5                     	ds	4
   537   0000C9                     Interrupt_INTx_Pin_Init@int_obj:
   538                           	callstack 0
   539   0000C9                     Interrupt_RBX_intialize@int_obj:
   540                           	callstack 0
   541                           
   542                           ; 2 bytes @ 0x8
   543   0000C9                     	ds	1
   544   0000CA                     send_4_bit_enable@lcd:
   545                           	callstack 0
   546   0000CA                     send_4_bit_help@lcd:
   547                           	callstack 0
   548   0000CA                     gpio_pin_intialize@Pin_Config:
   549                           	callstack 0
   550                           
   551                           ; 2 bytes @ 0x9
   552   0000CA                     	ds	1
   553   0000CB                     ??_Interrupt_RBX_intialize:
   554   0000CB                     Interrupt_INTX_intialize@int_obj:
   555                           	callstack 0
   556                           
   557                           ; 2 bytes @ 0xA
   558   0000CB                     	ds	1
   559   0000CC                     ??_gpio_pin_intialize:
   560   0000CC                     send_4_bit_enable@ret:
   561                           	callstack 0
   562   0000CC                     send_4_bit_help@data_command:
   563                           	callstack 0
   564                           
   565                           ; 1 bytes @ 0xB
   566   0000CC                     	ds	1
   567   0000CD                     send_4_bit_help@ret:
   568                           	callstack 0
   569   0000CD                     gpio_pin_intialize@ret:
   570                           	callstack 0
   571   0000CD                     Interrupt_RBX_intialize@ret:
   572                           	callstack 0
   573                           
   574                           ; 1 bytes @ 0xC
   575   0000CD                     	ds	1
   576   0000CE                     keypad_pin_initialize@keypad:
   577                           	callstack 0
   578   0000CE                     send_4_bit_command@lcd:
   579                           	callstack 0
   580   0000CE                     send_4_bit_char_data@lcd:
   581                           	callstack 0
   582                           
   583                           ; 2 bytes @ 0xD
   584   0000CE                     	ds	2
   585   0000D0                     send_4_bit_command@command:
   586                           	callstack 0
   587   0000D0                     send_4_bit_char_data@data:
   588                           	callstack 0
   589                           
   590                           ; 1 bytes @ 0xF
   591   0000D0                     	ds	1
   592   0000D1                     send_4_bit_command@ret:
   593                           	callstack 0
   594   0000D1                     send_4_bit_char_data@ret:
   595                           	callstack 0
   596                           
   597                           ; 1 bytes @ 0x10
   598   0000D1                     	ds	1
   599   0000D2                     lcd_pins_4_initialize@lcd:
   600                           	callstack 0
   601   0000D2                     lcd_4_bit_set_cursor@lcd:
   602                           	callstack 0
   603                           
   604                           ; 2 bytes @ 0x11
   605   0000D2                     	ds	2
   606   0000D4                     ??_lcd_pins_4_initialize:
   607   0000D4                     lcd_4_bit_set_cursor@row:
   608                           	callstack 0
   609                           
   610                           ; 1 bytes @ 0x13
   611   0000D4                     	ds	1
   612   0000D5                     lcd_4_bit_set_cursor@column:
   613                           	callstack 0
   614                           
   615                           ; 1 bytes @ 0x14
   616   0000D5                     	ds	1
   617   0000D6                     lcd_pins_4_initialize@cnt_pin:
   618                           	callstack 0
   619   0000D6                     lcd_4_bit_set_cursor@ret:
   620                           	callstack 0
   621                           
   622                           ; 1 bytes @ 0x15
   623   0000D6                     	ds	1
   624   0000D7                     lcd_pins_4_initialize@ret:
   625                           	callstack 0
   626   0000D7                     send_4_bit_string_data_pos@lcd:
   627                           	callstack 0
   628                           
   629                           ; 2 bytes @ 0x16
   630   0000D7                     	ds	2
   631   0000D9                     send_4_bit_string_data_pos@row:
   632                           	callstack 0
   633                           
   634                           ; 1 bytes @ 0x18
   635   0000D9                     	ds	1
   636   0000DA                     send_4_bit_string_data_pos@column:
   637                           	callstack 0
   638                           
   639                           ; 1 bytes @ 0x19
   640   0000DA                     	ds	1
   641   0000DB                     send_4_bit_string_data_pos@data:
   642                           	callstack 0
   643                           
   644                           ; 2 bytes @ 0x1A
   645   0000DB                     	ds	2
   646   0000DD                     ??_main:
   647                           
   648                           ; 1 bytes @ 0x1C
   649   0000DD                     	ds	2
   650   0000DF                     main@cnt_row:
   651                           	callstack 0
   652                           
   653                           ; 1 bytes @ 0x1E
   654   0000DF                     	ds	1
   655   0000E0                     main@i:
   656                           	callstack 0
   657                           
   658                           ; 2 bytes @ 0x1F
   659   0000E0                     	ds	2
   660                           
   661                           	psect	cstackCOMRAM
   662   000001                     __pcstackCOMRAM:
   663                           	callstack 0
   664   000001                     EEPROM_Read_Data@addrees:
   665                           	callstack 0
   666   000001                     gpio_pin_read_logic@Pin_Config:
   667                           	callstack 0
   668   000001                     i2gpio_pin_write_logic@Pin_Config:
   669                           	callstack 0
   670                           
   671                           ; 2 bytes @ 0x0
   672   000001                     	ds	2
   673   000003                     i2gpio_pin_write_logic@logic:
   674                           	callstack 0
   675   000003                     EEPROM_Read_Data@data:
   676                           	callstack 0
   677   000003                     gpio_pin_read_logic@logic:
   678                           	callstack 0
   679                           
   680                           ; 2 bytes @ 0x2
   681   000003                     	ds	1
   682   000004                     ??i2_gpio_pin_write_logic:
   683                           
   684                           ; 1 bytes @ 0x3
   685   000004                     	ds	1
   686   000005                     ??_gpio_pin_read_logic:
   687                           
   688                           ; 1 bytes @ 0x4
   689   000005                     	ds	5
   690   00000A                     gpio_pin_read_logic@ret:
   691                           	callstack 0
   692   00000A                     i2gpio_pin_write_logic@ret:
   693                           	callstack 0
   694                           
   695                           ; 1 bytes @ 0x9
   696   00000A                     	ds	1
   697   00000B                     get_value_INTX_interrupt@keypad:
   698                           	callstack 0
   699   00000B                     get_value_RBX_interrupt@keypad:
   700                           	callstack 0
   701   00000B                     i2send_4_bit_enable@lcd:
   702                           	callstack 0
   703   00000B                     i2send_4_bit_help@lcd:
   704                           	callstack 0
   705                           
   706                           ; 2 bytes @ 0xA
   707   00000B                     	ds	2
   708   00000D                     i2send_4_bit_enable@ret:
   709                           	callstack 0
   710   00000D                     i2send_4_bit_help@data_command:
   711                           	callstack 0
   712   00000D                     get_value_INTX_interrupt@INTX:
   713                           	callstack 0
   714   00000D                     get_value_RBX_interrupt@RBX:
   715                           	callstack 0
   716                           
   717                           ; 2 bytes @ 0xC
   718   00000D                     	ds	1
   719   00000E                     i2send_4_bit_help@ret:
   720                           	callstack 0
   721                           
   722                           ; 1 bytes @ 0xD
   723   00000E                     	ds	1
   724   00000F                     get_value_INTX_interrupt@value:
   725                           	callstack 0
   726   00000F                     get_value_RBX_interrupt@value:
   727                           	callstack 0
   728   00000F                     i2send_4_bit_char_data@lcd:
   729                           	callstack 0
   730                           
   731                           ; 2 bytes @ 0xE
   732   00000F                     	ds	2
   733   000011                     ??_get_value_INTX_interrupt:
   734   000011                     ??_get_value_RBX_interrupt:
   735   000011                     i2send_4_bit_char_data@data:
   736                           	callstack 0
   737                           
   738                           ; 1 bytes @ 0x10
   739   000011                     	ds	1
   740   000012                     i2send_4_bit_char_data@ret:
   741                           	callstack 0
   742                           
   743                           ; 1 bytes @ 0x11
   744   000012                     	ds	2
   745   000014                     get_value_INTX_interrupt@pin_row_st:
   746                           	callstack 0
   747   000014                     get_value_RBX_interrupt@pin_row_st:
   748                           	callstack 0
   749                           
   750                           ; 1 bytes @ 0x13
   751   000014                     	ds	1
   752   000015                     get_value_INTX_interrupt@cnt:
   753                           	callstack 0
   754   000015                     get_value_RBX_interrupt@cnt:
   755                           	callstack 0
   756                           
   757                           ; 1 bytes @ 0x14
   758   000015                     	ds	1
   759   000016                     ??_burrun0_interrupt:
   760   000016                     ??_burrun1_interrupt:
   761   000016                     ??_burrun2_interrupt:
   762   000016                     ??_burrun3_interrupt:
   763                           
   764                           ; 1 bytes @ 0x15
   765   000016                     	ds	4
   766   00001A                     RB4_ISR@RB4_Source:
   767                           	callstack 0
   768                           
   769                           ; 1 bytes @ 0x19
   770   00001A                     	ds	1
   771   00001B                     ??_InterruptManager:
   772                           
   773                           ; 1 bytes @ 0x1A
   774   00001B                     	ds	8
   775   000023                     EEPROM_Write_Data@global_iterrupr_status:
   776                           	callstack 0
   777   000023                     gpio_pin_direction_intialize@ret:
   778                           	callstack 0
   779   000023                     gpio_pin_write_logic@ret:
   780                           	callstack 0
   781                           
   782                           ; 1 bytes @ 0x22
   783   000023                     	ds	1
   784   000024                     
   785                           ; 1 bytes @ 0x23
   786 ;;
   787 ;;Main: autosize = 0, tempsize = 2, incstack = 0, save=0
   788 ;;
   789 ;; *************** function _main *****************
   790 ;; Defined at:
   791 ;;		line 120 in file "Password_safe.c"
   792 ;; Parameters:    Size  Location     Type
   793 ;;		None
   794 ;; Auto vars:     Size  Location     Type
   795 ;;  cnt_row         1   30[BANK0 ] unsigned char 
   796 ;;  i               2   31[BANK0 ] int 
   797 ;;  ret             1    0        unsigned char 
   798 ;; Return value:  Size  Location     Type
   799 ;;                  2   64[None  ] int 
   800 ;; Registers used:
   801 ;;		wreg, fsr2l, fsr2h, status,2, status,0, tblptrl, tblptrh, tblptru, prodl, prodh, cstack
   802 ;; Tracked objects:
   803 ;;		On entry : 0/0
   804 ;;		On exit  : 0/0
   805 ;;		Unchanged: 0/0
   806 ;; Data sizes:     COMRAM   BANK0   BANK1   BANK2   BANK3   BANK4   BANK5   BANK6   BANK7   BANK8   BANK9  BANK10  BANK1
      +1  BANK12  BANK13  BANK14  BANK15
   807 ;;      Params:         0       0       0       0       0       0       0       0       0       0       0       0       
      +0       0       0       0       0
   808 ;;      Locals:         0       3       0       0       0       0       0       0       0       0       0       0       
      +0       0       0       0       0
   809 ;;      Temps:          0       2       0       0       0       0       0       0       0       0       0       0       
      +0       0       0       0       0
   810 ;;      Totals:         0       5       0       0       0       0       0       0       0       0       0       0       
      +0       0       0       0       0
   811 ;;Total ram usage:        5 bytes
   812 ;; Hardware stack levels required when called: 11
   813 ;; This function calls:
   814 ;;		_EEPROM_Write_Data
   815 ;;		_application_initialize
   816 ;;		_gpio_pin_write_logic
   817 ;;		_send_4_bit_command
   818 ;;		_send_4_bit_string_data_pos
   819 ;; This function is called by:
   820 ;;		Startup code after reset
   821 ;; This function uses a non-reentrant model
   822 ;;
   823                           
   824                           	psect	text0
   825   00103E                     __ptext0:
   826                           	callstack 0
   827   00103E                     _main:
   828                           	callstack 20
   829   00103E                     
   830                           ;Password_safe.c: 122:      application_initialize();
   831   00103E  EC1B  F013         	call	_application_initialize	;wreg free
   832   001042                     
   833                           ;Password_safe.c: 123:      for(int i = 0; i < 4; i++)
   834   001042  0E00               	movlw	0
   835   001044  0100               	movlb	0	; () banked
   836   001046  6FE1               	movwf	(main@i+1)& (0+255),b
   837   001048  0E00               	movlw	0
   838   00104A  6FE0               	movwf	main@i& (0+255),b
   839   00104C                     l4657:
   840                           
   841                           ; BSR set to: 0
   842   00104C  C0E0  F0C1         	movff	main@i,EEPROM_Write_Data@addrees
   843   001050  C0E1  F0C2         	movff	main@i+1,EEPROM_Write_Data@addrees+1
   844   001054  0EA4               	movlw	low _arr
   845   001056  25E0               	addwf	main@i& (0+255),w,b
   846   001058  6ED9               	movwf	fsr2l,c
   847   00105A  0E00               	movlw	high _arr
   848   00105C  21E1               	addwfc	(main@i+1)& (0+255),w,b
   849   00105E  6EDA               	movwf	fsr2h,c
   850   001060  50DF               	movf	indf2,w,c
   851   001062  0FD0               	addlw	208
   852   001064  6FC3               	movwf	EEPROM_Write_Data@data& (0+255),b
   853   001066  EC97  F013         	call	_EEPROM_Write_Data	;wreg free
   854   00106A  0100               	movlb	0	; () banked
   855   00106C  4BE0               	infsnz	main@i& (0+255),f,b
   856   00106E  2BE1               	incf	(main@i+1)& (0+255),f,b
   857   001070                     
   858                           ; BSR set to: 0
   859   001070  BFE1               	btfsc	(main@i+1)& (0+255),7,b
   860   001072  EF44  F008         	goto	u3981
   861   001076  51E1               	movf	(main@i+1)& (0+255),w,b
   862   001078  E109               	bnz	u3980
   863   00107A  0E04               	movlw	4
   864   00107C  5DE0               	subwf	main@i& (0+255),w,b
   865   00107E  A0D8               	btfss	status,0,c
   866   001080  EF44  F008         	goto	u3981
   867   001084  EF46  F008         	goto	u3980
   868   001088                     u3981:
   869   001088  EF26  F008         	goto	l4657
   870   00108C                     u3980:
   871   00108C                     l4663:
   872                           
   873                           ;Password_safe.c: 127:           for(uint8 cnt_row = 0; cnt_row < 4; cnt_row++){
   874   00108C  0E00               	movlw	0
   875   00108E  0100               	movlb	0	; () banked
   876   001090  6FDF               	movwf	main@cnt_row& (0+255),b
   877   001092                     l4669:
   878                           
   879                           ; BSR set to: 0
   880                           ;Password_safe.c: 128:             for(cnt = 0; cnt < 4; cnt++)
   881   001092  0E00               	movlw	0
   882   001094  6E3F               	movwf	_cnt^0,c
   883   001096                     l4675:
   884   001096  0E4F               	movlw	low _keypad
   885   001098  243F               	addwf	_cnt^0,w,c
   886   00109A  0100               	movlb	0	; () banked
   887   00109C  6FC1               	movwf	gpio_pin_write_logic@Pin_Config& (0+255),b
   888   00109E  6BC2               	clrf	(gpio_pin_write_logic@Pin_Config+1)& (0+255),b
   889   0010A0  0E00               	movlw	high _keypad
   890   0010A2  23C2               	addwfc	(gpio_pin_write_logic@Pin_Config+1)& (0+255),f,b
   891   0010A4  0E00               	movlw	0
   892   0010A6  6FC3               	movwf	gpio_pin_write_logic@logic& (0+255),b
   893   0010A8  EC85  F00B         	call	_gpio_pin_write_logic	;wreg free
   894   0010AC                     
   895                           ;Password_safe.c: 131:             }
   896   0010AC  2A3F               	incf	_cnt^0,f,c
   897   0010AE  0E03               	movlw	3
   898   0010B0  643F               	cpfsgt	_cnt^0,c
   899   0010B2  EF5D  F008         	goto	u3991
   900   0010B6  EF5F  F008         	goto	u3990
   901   0010BA                     u3991:
   902   0010BA  EF4B  F008         	goto	l4675
   903   0010BE                     u3990:
   904   0010BE  0E4F               	movlw	low _keypad
   905   0010C0  0100               	movlb	0	; () banked
   906   0010C2  25DF               	addwf	main@cnt_row& (0+255),w,b
   907   0010C4  6FC1               	movwf	gpio_pin_write_logic@Pin_Config& (0+255),b
   908   0010C6  6BC2               	clrf	(gpio_pin_write_logic@Pin_Config+1)& (0+255),b
   909   0010C8  0E00               	movlw	high _keypad
   910   0010CA  23C2               	addwfc	(gpio_pin_write_logic@Pin_Config+1)& (0+255),f,b
   911   0010CC  0E01               	movlw	1
   912   0010CE  6FC3               	movwf	gpio_pin_write_logic@logic& (0+255),b
   913   0010D0  EC85  F00B         	call	_gpio_pin_write_logic	;wreg free
   914   0010D4                     
   915                           ;Password_safe.c: 133:           }
   916   0010D4  0100               	movlb	0	; () banked
   917   0010D6  2BDF               	incf	main@cnt_row& (0+255),f,b
   918   0010D8                     
   919                           ; BSR set to: 0
   920   0010D8  0E03               	movlw	3
   921   0010DA  65DF               	cpfsgt	main@cnt_row& (0+255),b
   922   0010DC  EF72  F008         	goto	u4001
   923   0010E0  EF74  F008         	goto	u4000
   924   0010E4                     u4001:
   925   0010E4  EF49  F008         	goto	l4669
   926   0010E8                     u4000:
   927   0010E8                     
   928                           ; BSR set to: 0
   929                           ;Password_safe.c: 134:           send_4_bit_command(&lcd_4bit,0x0D);
   930   0010E8  0E57               	movlw	low _lcd_4bit
   931   0010EA  6FCE               	movwf	send_4_bit_command@lcd& (0+255),b
   932   0010EC  0E00               	movlw	high _lcd_4bit
   933   0010EE  6FCF               	movwf	(send_4_bit_command@lcd+1)& (0+255),b
   934   0010F0  0E0D               	movlw	13
   935   0010F2  6FD0               	movwf	send_4_bit_command@command& (0+255),b
   936   0010F4  EC2D  F011         	call	_send_4_bit_command	;wreg free
   937   0010F8                     
   938                           ;Password_safe.c: 135:           if(4 == cnt_pw && 0 == psw_st)
   939   0010F8  0E04               	movlw	4
   940   0010FA  183E               	xorwf	_cnt_pw^0,w,c
   941   0010FC  A4D8               	btfss	status,2,c
   942   0010FE  EF83  F008         	goto	u4011
   943   001102  EF85  F008         	goto	u4010
   944   001106                     u4011:
   945   001106  EFD0  F008         	goto	l4707
   946   00110A                     u4010:
   947   00110A  504E               	movf	_psw_st^0,w,c	;volatile
   948   00110C  A4D8               	btfss	status,2,c
   949   00110E  EF8B  F008         	goto	u4021
   950   001112  EF8D  F008         	goto	u4020
   951   001116                     u4021:
   952   001116  EFD0  F008         	goto	l4707
   953   00111A                     u4020:
   954   00111A                     
   955                           ;Password_safe.c: 136:           {;Password_safe.c: 137:             send_4_bit_command(
      +                          &lcd_4bit,0x0C);
   956   00111A  0E57               	movlw	low _lcd_4bit
   957   00111C  0100               	movlb	0	; () banked
   958   00111E  6FCE               	movwf	send_4_bit_command@lcd& (0+255),b
   959   001120  0E00               	movlw	high _lcd_4bit
   960   001122  6FCF               	movwf	(send_4_bit_command@lcd+1)& (0+255),b
   961   001124  0E0C               	movlw	12
   962   001126  6FD0               	movwf	send_4_bit_command@command& (0+255),b
   963   001128  EC2D  F011         	call	_send_4_bit_command	;wreg free
   964   00112C                     
   965                           ;Password_safe.c: 138:             send_4_bit_string_data_pos(&lcd_4bit,2,2,"Incorrect P
      +                          assword");
   966   00112C  0E57               	movlw	low _lcd_4bit
   967   00112E  0100               	movlb	0	; () banked
   968   001130  6FD7               	movwf	send_4_bit_string_data_pos@lcd& (0+255),b
   969   001132  0E00               	movlw	high _lcd_4bit
   970   001134  6FD8               	movwf	(send_4_bit_string_data_pos@lcd+1)& (0+255),b
   971   001136  0E02               	movlw	2
   972   001138  6FD9               	movwf	send_4_bit_string_data_pos@row& (0+255),b
   973   00113A  0E02               	movlw	2
   974   00113C  6FDA               	movwf	send_4_bit_string_data_pos@column& (0+255),b
   975   00113E  0E27               	movlw	low STR_1
   976   001140  6FDB               	movwf	send_4_bit_string_data_pos@data& (0+255),b
   977   001142  0E10               	movlw	high STR_1
   978   001144  6FDC               	movwf	(send_4_bit_string_data_pos@data+1)& (0+255),b
   979   001146  ECA7  F011         	call	_send_4_bit_string_data_pos	;wreg free
   980   00114A                     
   981                           ;Password_safe.c: 139:             send_4_bit_string_data_pos(&lcd_4bit,3,2,"     Try Ag
      +                          ain    ");
   982   00114A  0E57               	movlw	low _lcd_4bit
   983   00114C  0100               	movlb	0	; () banked
   984   00114E  6FD7               	movwf	send_4_bit_string_data_pos@lcd& (0+255),b
   985   001150  0E00               	movlw	high _lcd_4bit
   986   001152  6FD8               	movwf	(send_4_bit_string_data_pos@lcd+1)& (0+255),b
   987   001154  0E03               	movlw	3
   988   001156  6FD9               	movwf	send_4_bit_string_data_pos@row& (0+255),b
   989   001158  0E02               	movlw	2
   990   00115A  6FDA               	movwf	send_4_bit_string_data_pos@column& (0+255),b
   991   00115C  0E01               	movlw	low STR_2
   992   00115E  6FDB               	movwf	send_4_bit_string_data_pos@data& (0+255),b
   993   001160  0E10               	movlw	high STR_2
   994   001162  6FDC               	movwf	(send_4_bit_string_data_pos@data+1)& (0+255),b
   995   001164  ECA7  F011         	call	_send_4_bit_string_data_pos	;wreg free
   996   001168                     
   997                           ;Password_safe.c: 140:             _delay((unsigned long)((1000)*(4000000UL/4000.0)));
   998   001168  0E06               	movlw	6
   999   00116A  0100               	movlb	0	; () banked
  1000   00116C  6FDE               	movwf	(??_main+1)& (0+255),b
  1001   00116E  0E13               	movlw	19
  1002   001170  6FDD               	movwf	??_main& (0+255),b
  1003   001172  0EAD               	movlw	173
  1004   001174                     u4247:
  1005   001174  2EE8               	decfsz	wreg,f,c
  1006   001176  D7FE               	bra	u4247
  1007   001178  2FDD               	decfsz	??_main& (0+255),f,b
  1008   00117A  D7FC               	bra	u4247
  1009   00117C  2FDE               	decfsz	(??_main+1)& (0+255),f,b
  1010   00117E  D7FA               	bra	u4247
  1011   001180  D000               	nop2	
  1012   001182                     
  1013                           ;Password_safe.c: 141:             send_4_bit_command(&lcd_4bit,0x01);
  1014   001182  0E57               	movlw	low _lcd_4bit
  1015   001184  0100               	movlb	0	; () banked
  1016   001186  6FCE               	movwf	send_4_bit_command@lcd& (0+255),b
  1017   001188  0E00               	movlw	high _lcd_4bit
  1018   00118A  6FCF               	movwf	(send_4_bit_command@lcd+1)& (0+255),b
  1019   00118C  0E01               	movlw	1
  1020   00118E  6FD0               	movwf	send_4_bit_command@command& (0+255),b
  1021   001190  EC2D  F011         	call	_send_4_bit_command	;wreg free
  1022   001194                     
  1023                           ;Password_safe.c: 142:             cnt_pw = 0;
  1024   001194  0E00               	movlw	0
  1025   001196  6E3E               	movwf	_cnt_pw^0,c
  1026   001198                     
  1027                           ;Password_safe.c: 143:             psw_st = 1;
  1028   001198  0E01               	movlw	1
  1029   00119A  6E4E               	movwf	_psw_st^0,c	;volatile
  1030                           
  1031                           ;Password_safe.c: 144:           }
  1032   00119C  EF46  F008         	goto	l4663
  1033   0011A0                     l4707:
  1034   0011A0  0E04               	movlw	4
  1035   0011A2  183E               	xorwf	_cnt_pw^0,w,c
  1036   0011A4  A4D8               	btfss	status,2,c
  1037   0011A6  EFD7  F008         	goto	u4031
  1038   0011AA  EFD9  F008         	goto	u4030
  1039   0011AE                     u4031:
  1040   0011AE  EF46  F008         	goto	l4663
  1041   0011B2                     u4030:
  1042   0011B2  044E               	decf	_psw_st^0,w,c	;volatile
  1043   0011B4  A4D8               	btfss	status,2,c
  1044   0011B6  EFDF  F008         	goto	u4041
  1045   0011BA  EFE1  F008         	goto	u4040
  1046   0011BE                     u4041:
  1047   0011BE  EF46  F008         	goto	l4663
  1048   0011C2                     u4040:
  1049   0011C2                     
  1050                           ;Password_safe.c: 146:             send_4_bit_command(&lcd_4bit,0x0C);
  1051   0011C2  0E57               	movlw	low _lcd_4bit
  1052   0011C4  0100               	movlb	0	; () banked
  1053   0011C6  6FCE               	movwf	send_4_bit_command@lcd& (0+255),b
  1054   0011C8  0E00               	movlw	high _lcd_4bit
  1055   0011CA  6FCF               	movwf	(send_4_bit_command@lcd+1)& (0+255),b
  1056   0011CC  0E0C               	movlw	12
  1057   0011CE  6FD0               	movwf	send_4_bit_command@command& (0+255),b
  1058   0011D0  EC2D  F011         	call	_send_4_bit_command	;wreg free
  1059   0011D4                     
  1060                           ;Password_safe.c: 147:             send_4_bit_string_data_pos(&lcd_4bit,2,2,"  correct P
      +                          assword");
  1061   0011D4  0E57               	movlw	low _lcd_4bit
  1062   0011D6  0100               	movlb	0	; () banked
  1063   0011D8  6FD7               	movwf	send_4_bit_string_data_pos@lcd& (0+255),b
  1064   0011DA  0E00               	movlw	high _lcd_4bit
  1065   0011DC  6FD8               	movwf	(send_4_bit_string_data_pos@lcd+1)& (0+255),b
  1066   0011DE  0E02               	movlw	2
  1067   0011E0  6FD9               	movwf	send_4_bit_string_data_pos@row& (0+255),b
  1068   0011E2  0E02               	movlw	2
  1069   0011E4  6FDA               	movwf	send_4_bit_string_data_pos@column& (0+255),b
  1070   0011E6  0E14               	movlw	low STR_3
  1071   0011E8  6FDB               	movwf	send_4_bit_string_data_pos@data& (0+255),b
  1072   0011EA  0E10               	movlw	high STR_3
  1073   0011EC  6FDC               	movwf	(send_4_bit_string_data_pos@data+1)& (0+255),b
  1074   0011EE  ECA7  F011         	call	_send_4_bit_string_data_pos	;wreg free
  1075   0011F2                     
  1076                           ;Password_safe.c: 148:             _delay((unsigned long)((1000)*(4000000UL/4000.0)));
  1077   0011F2  0E06               	movlw	6
  1078   0011F4  0100               	movlb	0	; () banked
  1079   0011F6  6FDE               	movwf	(??_main+1)& (0+255),b
  1080   0011F8  0E13               	movlw	19
  1081   0011FA  6FDD               	movwf	??_main& (0+255),b
  1082   0011FC  0EAD               	movlw	173
  1083   0011FE                     u4257:
  1084   0011FE  2EE8               	decfsz	wreg,f,c
  1085   001200  D7FE               	bra	u4257
  1086   001202  2FDD               	decfsz	??_main& (0+255),f,b
  1087   001204  D7FC               	bra	u4257
  1088   001206  2FDE               	decfsz	(??_main+1)& (0+255),f,b
  1089   001208  D7FA               	bra	u4257
  1090   00120A  D000               	nop2	
  1091   00120C                     
  1092                           ;Password_safe.c: 149:             send_4_bit_command(&lcd_4bit,0x01);
  1093   00120C  0E57               	movlw	low _lcd_4bit
  1094   00120E  0100               	movlb	0	; () banked
  1095   001210  6FCE               	movwf	send_4_bit_command@lcd& (0+255),b
  1096   001212  0E00               	movlw	high _lcd_4bit
  1097   001214  6FCF               	movwf	(send_4_bit_command@lcd+1)& (0+255),b
  1098   001216  0E01               	movlw	1
  1099   001218  6FD0               	movwf	send_4_bit_command@command& (0+255),b
  1100   00121A  EC2D  F011         	call	_send_4_bit_command	;wreg free
  1101   00121E                     
  1102                           ;Password_safe.c: 150:             cnt_pw = 0;
  1103   00121E  0E00               	movlw	0
  1104   001220  6E3E               	movwf	_cnt_pw^0,c
  1105   001222  EF46  F008         	goto	l4663
  1106   001226  EF07  F000         	goto	start
  1107   00122A                     __end_of_main:
  1108                           	callstack 0
  1109                           
  1110 ;; *************** function _send_4_bit_string_data_pos *****************
  1111 ;; Defined at:
  1112 ;;		line 111 in file "ECU_layer/LCD/ecu_lcd.c"
  1113 ;; Parameters:    Size  Location     Type
  1114 ;;  lcd             2   22[BANK0 ] PTR const struct .
  1115 ;;		 -> lcd_4bit(6), 
  1116 ;;  row             1   24[BANK0 ] unsigned char 
  1117 ;;  column          1   25[BANK0 ] unsigned char 
  1118 ;;  data            2   26[BANK0 ] PTR unsigned char 
  1119 ;;		 -> STR_3(19), STR_2(19), STR_1(19), 
  1120 ;; Auto vars:     Size  Location     Type
  1121 ;;  ret             1    0        unsigned char 
  1122 ;; Return value:  Size  Location     Type
  1123 ;;                  1    wreg      unsigned char 
  1124 ;; Registers used:
  1125 ;;		wreg, fsr2l, fsr2h, status,2, status,0, tblptrl, tblptrh, tblptru, prodl, prodh, cstack
  1126 ;; Tracked objects:
  1127 ;;		On entry : 0/0
  1128 ;;		On exit  : 0/0
  1129 ;;		Unchanged: 0/0
  1130 ;; Data sizes:     COMRAM   BANK0   BANK1   BANK2   BANK3   BANK4   BANK5   BANK6   BANK7   BANK8   BANK9  BANK10  BANK1
      +1  BANK12  BANK13  BANK14  BANK15
  1131 ;;      Params:         0       6       0       0       0       0       0       0       0       0       0       0       
      +0       0       0       0       0
  1132 ;;      Locals:         0       0       0       0       0       0       0       0       0       0       0       0       
      +0       0       0       0       0
  1133 ;;      Temps:          0       0       0       0       0       0       0       0       0       0       0       0       
      +0       0       0       0       0
  1134 ;;      Totals:         0       6       0       0       0       0       0       0       0       0       0       0       
      +0       0       0       0       0
  1135 ;;Total ram usage:        6 bytes
  1136 ;; Hardware stack levels used: 1
  1137 ;; Hardware stack levels required when called: 10
  1138 ;; This function calls:
  1139 ;;		_lcd_4_bit_set_cursor
  1140 ;;		_send_4_bit_char_data
  1141 ;; This function is called by:
  1142 ;;		_main
  1143 ;; This function uses a non-reentrant model
  1144 ;;
  1145                           
  1146                           	psect	text1
  1147   00234E                     __ptext1:
  1148                           	callstack 0
  1149   00234E                     _send_4_bit_string_data_pos:
  1150                           	callstack 20
  1151   00234E                     
  1152                           ;ECU_layer/LCD/ecu_lcd.c: 114:     if(((void*)0) == lcd)
  1153   00234E  0100               	movlb	0	; () banked
  1154   002350  51D7               	movf	send_4_bit_string_data_pos@lcd& (0+255),w,b
  1155   002352  11D8               	iorwf	(send_4_bit_string_data_pos@lcd+1)& (0+255),w,b
  1156   002354  A4D8               	btfss	status,2,c
  1157   002356  EFAF  F011         	goto	u3941
  1158   00235A  EFB1  F011         	goto	u3940
  1159   00235E                     u3941:
  1160   00235E  EFB3  F011         	goto	l4619
  1161   002362                     u3940:
  1162   002362                     
  1163                           ; BSR set to: 0
  1164   002362  EFDF  F011         	goto	l212
  1165   002366                     l4619:
  1166                           
  1167                           ; BSR set to: 0
  1168   002366  C0D7  F0D2         	movff	send_4_bit_string_data_pos@lcd,lcd_4_bit_set_cursor@lcd
  1169   00236A  C0D8  F0D3         	movff	send_4_bit_string_data_pos@lcd+1,lcd_4_bit_set_cursor@lcd+1
  1170   00236E  C0D9  F0D4         	movff	send_4_bit_string_data_pos@row,lcd_4_bit_set_cursor@row
  1171   002372  C0DA  F0D5         	movff	send_4_bit_string_data_pos@column,lcd_4_bit_set_cursor@column
  1172   002376  EC38  F00D         	call	_lcd_4_bit_set_cursor	;wreg free
  1173                           
  1174                           ;ECU_layer/LCD/ecu_lcd.c: 119:       while(*data){
  1175   00237A  EFD0  F011         	goto	l4625
  1176   00237E                     l4621:
  1177   00237E  C0D7  F0CE         	movff	send_4_bit_string_data_pos@lcd,send_4_bit_char_data@lcd
  1178   002382  C0D8  F0CF         	movff	send_4_bit_string_data_pos@lcd+1,send_4_bit_char_data@lcd+1
  1179   002386  C0DB  FFF6         	movff	send_4_bit_string_data_pos@data,tblptrl
  1180   00238A  C0DC  FFF7         	movff	send_4_bit_string_data_pos@data+1,tblptrh
  1181   00238E                     	if	1	;Program memory is < 0x10000, tblptru is always zero
  1182   00238E  6AF8               	clrf	tblptru,c
  1183   002390                     	endif
  1184   002390                     	if	0	;tblptru may be non-zero
  1185   002390                     	endif
  1186   002390  0008               	tblrd		*
  1187   002392  CFF5 F0D0          	movff	tablat,send_4_bit_char_data@data
  1188   002396  ECEE  F010         	call	_send_4_bit_char_data	;wreg free
  1189   00239A  0100               	movlb	0	; () banked
  1190   00239C  4BDB               	infsnz	send_4_bit_string_data_pos@data& (0+255),f,b
  1191   00239E  2BDC               	incf	(send_4_bit_string_data_pos@data+1)& (0+255),f,b
  1192   0023A0                     l4625:
  1193                           
  1194                           ;ECU_layer/LCD/ecu_lcd.c: 119:       while(*data){
  1195   0023A0  C0DB  FFF6         	movff	send_4_bit_string_data_pos@data,tblptrl
  1196   0023A4  C0DC  FFF7         	movff	send_4_bit_string_data_pos@data+1,tblptrh
  1197   0023A8                     	if	1	;Program memory is < 0x10000, tblptru is always zero
  1198   0023A8  6AF8               	clrf	tblptru,c
  1199   0023AA                     	endif
  1200   0023AA                     	if	0	;tblptru may be non-zero
  1201   0023AA                     	endif
  1202   0023AA  0008               	tblrd		*
  1203   0023AC  50F5               	movf	tablat,w,c
  1204   0023AE  0900               	iorlw	0
  1205   0023B0  A4D8               	btfss	status,2,c
  1206   0023B2  EFDD  F011         	goto	u3951
  1207   0023B6  EFDF  F011         	goto	u3950
  1208   0023BA                     u3951:
  1209   0023BA  EFBF  F011         	goto	l4621
  1210   0023BE                     u3950:
  1211   0023BE                     l212:
  1212   0023BE  0012               	return		;funcret
  1213   0023C0                     __end_of_send_4_bit_string_data_pos:
  1214                           	callstack 0
  1215                           
  1216 ;; *************** function _send_4_bit_char_data *****************
  1217 ;; Defined at:
  1218 ;;		line 61 in file "ECU_layer/LCD/ecu_lcd.c"
  1219 ;; Parameters:    Size  Location     Type
  1220 ;;  lcd             2   13[BANK0 ] PTR const struct .
  1221 ;;		 -> lcd_4bit(6), 
  1222 ;;  data            1   15[BANK0 ] unsigned char 
  1223 ;; Auto vars:     Size  Location     Type
  1224 ;;  ret             1   16[BANK0 ] unsigned char 
  1225 ;; Return value:  Size  Location     Type
  1226 ;;                  1    wreg      unsigned char 
  1227 ;; Registers used:
  1228 ;;		wreg, fsr2l, fsr2h, status,2, status,0, prodl, prodh, cstack
  1229 ;; Tracked objects:
  1230 ;;		On entry : 0/0
  1231 ;;		On exit  : 0/0
  1232 ;;		Unchanged: 0/0
  1233 ;; Data sizes:     COMRAM   BANK0   BANK1   BANK2   BANK3   BANK4   BANK5   BANK6   BANK7   BANK8   BANK9  BANK10  BANK1
      +1  BANK12  BANK13  BANK14  BANK15
  1234 ;;      Params:         0       3       0       0       0       0       0       0       0       0       0       0       
      +0       0       0       0       0
  1235 ;;      Locals:         0       1       0       0       0       0       0       0       0       0       0       0       
      +0       0       0       0       0
  1236 ;;      Temps:          0       0       0       0       0       0       0       0       0       0       0       0       
      +0       0       0       0       0
  1237 ;;      Totals:         0       4       0       0       0       0       0       0       0       0       0       0       
      +0       0       0       0       0
  1238 ;;Total ram usage:        4 bytes
  1239 ;; Hardware stack levels used: 1
  1240 ;; Hardware stack levels required when called: 8
  1241 ;; This function calls:
  1242 ;;		_gpio_pin_write_logic
  1243 ;;		_send_4_bit_enable
  1244 ;;		_send_4_bit_help
  1245 ;; This function is called by:
  1246 ;;		_send_4_bit_string_data_pos
  1247 ;;		_send_4_bit_char_data_pos
  1248 ;;		_send_4_bit_string_data
  1249 ;;		_send_4_bit_custome_char_data_pos
  1250 ;; This function uses a non-reentrant model
  1251 ;;
  1252                           
  1253                           	psect	text2
  1254   0021DC                     __ptext2:
  1255                           	callstack 0
  1256   0021DC                     _send_4_bit_char_data:
  1257                           	callstack 21
  1258   0021DC                     
  1259                           ;ECU_layer/LCD/ecu_lcd.c: 63:     if(((void*)0) == lcd)
  1260   0021DC  0100               	movlb	0	; () banked
  1261   0021DE  51CE               	movf	send_4_bit_char_data@lcd& (0+255),w,b
  1262   0021E0  11CF               	iorwf	(send_4_bit_char_data@lcd+1)& (0+255),w,b
  1263   0021E2  A4D8               	btfss	status,2,c
  1264   0021E4  EFF6  F010         	goto	u3781
  1265   0021E8  EFF8  F010         	goto	u3780
  1266   0021EC                     u3781:
  1267   0021EC  EFFC  F010         	goto	l4497
  1268   0021F0                     u3780:
  1269   0021F0                     
  1270                           ; BSR set to: 0
  1271                           ;ECU_layer/LCD/ecu_lcd.c: 64:         ret = (Std_ReturnType)0x00;
  1272   0021F0  0E00               	movlw	0
  1273   0021F2  6FD1               	movwf	send_4_bit_char_data@ret& (0+255),b
  1274   0021F4  EF2B  F011         	goto	l4499
  1275   0021F8                     l4497:
  1276                           
  1277                           ; BSR set to: 0
  1278                           ;ECU_layer/LCD/ecu_lcd.c: 66:     {;ECU_layer/LCD/ecu_lcd.c: 67:         ret = gpio_pin_
      +                          write_logic(&(lcd->rs_lcd),HIGH);
  1279   0021F8  C0CE  F0C1         	movff	send_4_bit_char_data@lcd,gpio_pin_write_logic@Pin_Config
  1280   0021FC  C0CF  F0C2         	movff	send_4_bit_char_data@lcd+1,gpio_pin_write_logic@Pin_Config+1
  1281   002200  0E01               	movlw	1
  1282   002202  6FC3               	movwf	gpio_pin_write_logic@logic& (0+255),b
  1283   002204  EC85  F00B         	call	_gpio_pin_write_logic	;wreg free
  1284   002208  0100               	movlb	0	; () banked
  1285   00220A  6FD1               	movwf	send_4_bit_char_data@ret& (0+255),b
  1286                           
  1287                           ;ECU_layer/LCD/ecu_lcd.c: 68:         ret = send_4_bit_help(lcd,data >> 4);
  1288   00220C  C0CE  F0CA         	movff	send_4_bit_char_data@lcd,send_4_bit_help@lcd
  1289   002210  C0CF  F0CB         	movff	send_4_bit_char_data@lcd+1,send_4_bit_help@lcd+1
  1290   002214  39D0               	swapf	send_4_bit_char_data@data& (0+255),w,b
  1291   002216  0B0F               	andlw	15
  1292   002218  6FCC               	movwf	send_4_bit_help@data_command& (0+255),b
  1293   00221A  EC55  F00F         	call	_send_4_bit_help	;wreg free
  1294   00221E  0100               	movlb	0	; () banked
  1295   002220  6FD1               	movwf	send_4_bit_char_data@ret& (0+255),b
  1296                           
  1297                           ;ECU_layer/LCD/ecu_lcd.c: 69:         ret = send_4_bit_enable(lcd);
  1298   002222  C0CE  F0CA         	movff	send_4_bit_char_data@lcd,send_4_bit_enable@lcd
  1299   002226  C0CF  F0CB         	movff	send_4_bit_char_data@lcd+1,send_4_bit_enable@lcd+1
  1300   00222A  EC46  F013         	call	_send_4_bit_enable	;wreg free
  1301   00222E  0100               	movlb	0	; () banked
  1302   002230  6FD1               	movwf	send_4_bit_char_data@ret& (0+255),b
  1303                           
  1304                           ;ECU_layer/LCD/ecu_lcd.c: 70:         ret = send_4_bit_help(lcd,data);
  1305   002232  C0CE  F0CA         	movff	send_4_bit_char_data@lcd,send_4_bit_help@lcd
  1306   002236  C0CF  F0CB         	movff	send_4_bit_char_data@lcd+1,send_4_bit_help@lcd+1
  1307   00223A  C0D0  F0CC         	movff	send_4_bit_char_data@data,send_4_bit_help@data_command
  1308   00223E  EC55  F00F         	call	_send_4_bit_help	;wreg free
  1309   002242  0100               	movlb	0	; () banked
  1310   002244  6FD1               	movwf	send_4_bit_char_data@ret& (0+255),b
  1311                           
  1312                           ;ECU_layer/LCD/ecu_lcd.c: 71:         ret = send_4_bit_enable(lcd);
  1313   002246  C0CE  F0CA         	movff	send_4_bit_char_data@lcd,send_4_bit_enable@lcd
  1314   00224A  C0CF  F0CB         	movff	send_4_bit_char_data@lcd+1,send_4_bit_enable@lcd+1
  1315   00224E  EC46  F013         	call	_send_4_bit_enable	;wreg free
  1316   002252  0100               	movlb	0	; () banked
  1317   002254  6FD1               	movwf	send_4_bit_char_data@ret& (0+255),b
  1318   002256                     l4499:
  1319                           
  1320                           ; BSR set to: 0
  1321                           ;ECU_layer/LCD/ecu_lcd.c: 73:              return ret;
  1322   002256  51D1               	movf	send_4_bit_char_data@ret& (0+255),w,b
  1323   002258                     
  1324                           ; BSR set to: 0
  1325   002258  0012               	return		;funcret
  1326   00225A                     __end_of_send_4_bit_char_data:
  1327                           	callstack 0
  1328                           
  1329 ;; *************** function _lcd_4_bit_set_cursor *****************
  1330 ;; Defined at:
  1331 ;;		line 139 in file "ECU_layer/LCD/ecu_lcd.c"
  1332 ;; Parameters:    Size  Location     Type
  1333 ;;  lcd             2   17[BANK0 ] PTR const struct .
  1334 ;;		 -> lcd_4bit(6), 
  1335 ;;  row             1   19[BANK0 ] unsigned char 
  1336 ;;  column          1   20[BANK0 ] unsigned char 
  1337 ;; Auto vars:     Size  Location     Type
  1338 ;;  ret             1   21[BANK0 ] unsigned char 
  1339 ;; Return value:  Size  Location     Type
  1340 ;;                  1    wreg      unsigned char 
  1341 ;; Registers used:
  1342 ;;		wreg, fsr2l, fsr2h, status,2, status,0, prodl, prodh, cstack
  1343 ;; Tracked objects:
  1344 ;;		On entry : 0/0
  1345 ;;		On exit  : 0/0
  1346 ;;		Unchanged: 0/0
  1347 ;; Data sizes:     COMRAM   BANK0   BANK1   BANK2   BANK3   BANK4   BANK5   BANK6   BANK7   BANK8   BANK9  BANK10  BANK1
      +1  BANK12  BANK13  BANK14  BANK15
  1348 ;;      Params:         0       4       0       0       0       0       0       0       0       0       0       0       
      +0       0       0       0       0
  1349 ;;      Locals:         0       1       0       0       0       0       0       0       0       0       0       0       
      +0       0       0       0       0
  1350 ;;      Temps:          0       0       0       0       0       0       0       0       0       0       0       0       
      +0       0       0       0       0
  1351 ;;      Totals:         0       5       0       0       0       0       0       0       0       0       0       0       
      +0       0       0       0       0
  1352 ;;Total ram usage:        5 bytes
  1353 ;; Hardware stack levels used: 1
  1354 ;; Hardware stack levels required when called: 9
  1355 ;; This function calls:
  1356 ;;		_send_4_bit_command
  1357 ;; This function is called by:
  1358 ;;		_send_4_bit_string_data_pos
  1359 ;;		_send_4_bit_char_data_pos
  1360 ;; This function uses a non-reentrant model
  1361 ;;
  1362                           
  1363                           	psect	text3
  1364   001A70                     __ptext3:
  1365                           	callstack 0
  1366   001A70                     _lcd_4_bit_set_cursor:
  1367                           	callstack 20
  1368   001A70                     
  1369                           ;ECU_layer/LCD/ecu_lcd.c: 140:                     Std_ReturnType ret = (Std_ReturnType)
      +                          0x01;
  1370   001A70  0E01               	movlw	1
  1371   001A72  0100               	movlb	0	; () banked
  1372   001A74  6FD6               	movwf	lcd_4_bit_set_cursor@ret& (0+255),b
  1373   001A76                     
  1374                           ; BSR set to: 0
  1375                           ;ECU_layer/LCD/ecu_lcd.c: 141:                  column--;
  1376   001A76  07D5               	decf	lcd_4_bit_set_cursor@column& (0+255),f,b
  1377   001A78                     
  1378                           ; BSR set to: 0
  1379                           ;ECU_layer/LCD/ecu_lcd.c: 142:     if(((void*)0) == lcd)
  1380   001A78  51D2               	movf	lcd_4_bit_set_cursor@lcd& (0+255),w,b
  1381   001A7A  11D3               	iorwf	(lcd_4_bit_set_cursor@lcd+1)& (0+255),w,b
  1382   001A7C  A4D8               	btfss	status,2,c
  1383   001A7E  EF43  F00D         	goto	u3791
  1384   001A82  EF45  F00D         	goto	u3790
  1385   001A86                     u3791:
  1386   001A86  EF49  F00D         	goto	l4511
  1387   001A8A                     u3790:
  1388   001A8A                     
  1389                           ; BSR set to: 0
  1390                           ;ECU_layer/LCD/ecu_lcd.c: 143:         ret = (Std_ReturnType)0x00;
  1391   001A8A  0E00               	movlw	0
  1392   001A8C  6FD6               	movwf	lcd_4_bit_set_cursor@ret& (0+255),b
  1393   001A8E  EFA0  F00D         	goto	l4527
  1394   001A92                     l4511:
  1395                           
  1396                           ; BSR set to: 0
  1397                           ;ECU_layer/LCD/ecu_lcd.c: 145:     {;ECU_layer/LCD/ecu_lcd.c: 146:         if(row == 1)
  1398   001A92  05D4               	decf	lcd_4_bit_set_cursor@row& (0+255),w,b
  1399   001A94  A4D8               	btfss	status,2,c
  1400   001A96  EF4F  F00D         	goto	u3801
  1401   001A9A  EF51  F00D         	goto	u3800
  1402   001A9E                     u3801:
  1403   001A9E  EF5E  F00D         	goto	l4515
  1404   001AA2                     u3800:
  1405   001AA2                     
  1406                           ; BSR set to: 0
  1407                           ;ECU_layer/LCD/ecu_lcd.c: 147:         {;ECU_layer/LCD/ecu_lcd.c: 148:             ret =
      +                           send_4_bit_command(lcd,(0x80 + column));
  1408   001AA2  C0D2  F0CE         	movff	lcd_4_bit_set_cursor@lcd,send_4_bit_command@lcd
  1409   001AA6  C0D3  F0CF         	movff	lcd_4_bit_set_cursor@lcd+1,send_4_bit_command@lcd+1
  1410   001AAA  51D5               	movf	lcd_4_bit_set_cursor@column& (0+255),w,b
  1411   001AAC  0F80               	addlw	128
  1412   001AAE  6FD0               	movwf	send_4_bit_command@command& (0+255),b
  1413   001AB0  EC2D  F011         	call	_send_4_bit_command	;wreg free
  1414   001AB4  0100               	movlb	0	; () banked
  1415   001AB6  6FD6               	movwf	lcd_4_bit_set_cursor@ret& (0+255),b
  1416                           
  1417                           ;ECU_layer/LCD/ecu_lcd.c: 149:         }
  1418   001AB8  EFA0  F00D         	goto	l4527
  1419   001ABC                     l4515:
  1420                           
  1421                           ; BSR set to: 0
  1422   001ABC  0E02               	movlw	2
  1423   001ABE  19D4               	xorwf	lcd_4_bit_set_cursor@row& (0+255),w,b
  1424   001AC0  A4D8               	btfss	status,2,c
  1425   001AC2  EF65  F00D         	goto	u3811
  1426   001AC6  EF67  F00D         	goto	u3810
  1427   001ACA                     u3811:
  1428   001ACA  EF74  F00D         	goto	l4519
  1429   001ACE                     u3810:
  1430   001ACE                     
  1431                           ; BSR set to: 0
  1432                           ;ECU_layer/LCD/ecu_lcd.c: 151:         {;ECU_layer/LCD/ecu_lcd.c: 152:             ret =
      +                           send_4_bit_command(lcd,(0xC0 + column));
  1433   001ACE  C0D2  F0CE         	movff	lcd_4_bit_set_cursor@lcd,send_4_bit_command@lcd
  1434   001AD2  C0D3  F0CF         	movff	lcd_4_bit_set_cursor@lcd+1,send_4_bit_command@lcd+1
  1435   001AD6  51D5               	movf	lcd_4_bit_set_cursor@column& (0+255),w,b
  1436   001AD8  0FC0               	addlw	192
  1437   001ADA  6FD0               	movwf	send_4_bit_command@command& (0+255),b
  1438   001ADC  EC2D  F011         	call	_send_4_bit_command	;wreg free
  1439   001AE0  0100               	movlb	0	; () banked
  1440   001AE2  6FD6               	movwf	lcd_4_bit_set_cursor@ret& (0+255),b
  1441                           
  1442                           ;ECU_layer/LCD/ecu_lcd.c: 153:         }
  1443   001AE4  EFA0  F00D         	goto	l4527
  1444   001AE8                     l4519:
  1445                           
  1446                           ; BSR set to: 0
  1447   001AE8  0E03               	movlw	3
  1448   001AEA  19D4               	xorwf	lcd_4_bit_set_cursor@row& (0+255),w,b
  1449   001AEC  A4D8               	btfss	status,2,c
  1450   001AEE  EF7B  F00D         	goto	u3821
  1451   001AF2  EF7D  F00D         	goto	u3820
  1452   001AF6                     u3821:
  1453   001AF6  EF8A  F00D         	goto	l4523
  1454   001AFA                     u3820:
  1455   001AFA                     
  1456                           ; BSR set to: 0
  1457                           ;ECU_layer/LCD/ecu_lcd.c: 155:             ret = send_4_bit_command(lcd,(0x94 + column))
      +                          ;
  1458   001AFA  C0D2  F0CE         	movff	lcd_4_bit_set_cursor@lcd,send_4_bit_command@lcd
  1459   001AFE  C0D3  F0CF         	movff	lcd_4_bit_set_cursor@lcd+1,send_4_bit_command@lcd+1
  1460   001B02  51D5               	movf	lcd_4_bit_set_cursor@column& (0+255),w,b
  1461   001B04  0F94               	addlw	148
  1462   001B06  6FD0               	movwf	send_4_bit_command@command& (0+255),b
  1463   001B08  EC2D  F011         	call	_send_4_bit_command	;wreg free
  1464   001B0C  0100               	movlb	0	; () banked
  1465   001B0E  6FD6               	movwf	lcd_4_bit_set_cursor@ret& (0+255),b
  1466                           
  1467                           ;ECU_layer/LCD/ecu_lcd.c: 156:         }
  1468   001B10  EFA0  F00D         	goto	l4527
  1469   001B14                     l4523:
  1470                           
  1471                           ; BSR set to: 0
  1472   001B14  0E04               	movlw	4
  1473   001B16  19D4               	xorwf	lcd_4_bit_set_cursor@row& (0+255),w,b
  1474   001B18  A4D8               	btfss	status,2,c
  1475   001B1A  EF91  F00D         	goto	u3831
  1476   001B1E  EF93  F00D         	goto	u3830
  1477   001B22                     u3831:
  1478   001B22  EFA0  F00D         	goto	l223
  1479   001B26                     u3830:
  1480   001B26                     
  1481                           ; BSR set to: 0
  1482                           ;ECU_layer/LCD/ecu_lcd.c: 158:             ret = send_4_bit_command(lcd,(0xD4 + column))
      +                          ;
  1483   001B26  C0D2  F0CE         	movff	lcd_4_bit_set_cursor@lcd,send_4_bit_command@lcd
  1484   001B2A  C0D3  F0CF         	movff	lcd_4_bit_set_cursor@lcd+1,send_4_bit_command@lcd+1
  1485   001B2E  51D5               	movf	lcd_4_bit_set_cursor@column& (0+255),w,b
  1486   001B30  0FD4               	addlw	212
  1487   001B32  6FD0               	movwf	send_4_bit_command@command& (0+255),b
  1488   001B34  EC2D  F011         	call	_send_4_bit_command	;wreg free
  1489   001B38  0100               	movlb	0	; () banked
  1490   001B3A  6FD6               	movwf	lcd_4_bit_set_cursor@ret& (0+255),b
  1491   001B3C  EFA0  F00D         	goto	l4527
  1492   001B40                     l223:
  1493   001B40                     l4527:
  1494                           
  1495                           ; BSR set to: 0
  1496                           ;ECU_layer/LCD/ecu_lcd.c: 162:         return ret;
  1497   001B40  51D6               	movf	lcd_4_bit_set_cursor@ret& (0+255),w,b
  1498   001B42                     
  1499                           ; BSR set to: 0
  1500   001B42  0012               	return		;funcret
  1501   001B44                     __end_of_lcd_4_bit_set_cursor:
  1502                           	callstack 0
  1503                           
  1504 ;; *************** function _application_initialize *****************
  1505 ;; Defined at:
  1506 ;;		line 157 in file "Password_safe.c"
  1507 ;; Parameters:    Size  Location     Type
  1508 ;;		None
  1509 ;; Auto vars:     Size  Location     Type
  1510 ;;		None
  1511 ;; Return value:  Size  Location     Type
  1512 ;;                  1    wreg      void 
  1513 ;; Registers used:
  1514 ;;		wreg, fsr2l, fsr2h, status,2, status,0, prodl, prodh, cstack
  1515 ;; Tracked objects:
  1516 ;;		On entry : 0/0
  1517 ;;		On exit  : 0/0
  1518 ;;		Unchanged: 0/0
  1519 ;; Data sizes:     COMRAM   BANK0   BANK1   BANK2   BANK3   BANK4   BANK5   BANK6   BANK7   BANK8   BANK9  BANK10  BANK1
      +1  BANK12  BANK13  BANK14  BANK15
  1520 ;;      Params:         0       0       0       0       0       0       0       0       0       0       0       0       
      +0       0       0       0       0
  1521 ;;      Locals:         0       0       0       0       0       0       0       0       0       0       0       0       
      +0       0       0       0       0
  1522 ;;      Temps:          0       0       0       0       0       0       0       0       0       0       0       0       
      +0       0       0       0       0
  1523 ;;      Totals:         0       0       0       0       0       0       0       0       0       0       0       0       
      +0       0       0       0       0
  1524 ;;Total ram usage:        0 bytes
  1525 ;; Hardware stack levels used: 1
  1526 ;; Hardware stack levels required when called: 10
  1527 ;; This function calls:
  1528 ;;		_Interrupt_INTX_intialize
  1529 ;;		_Interrupt_RBX_intialize
  1530 ;;		_keypad_pin_initialize
  1531 ;;		_lcd_pins_4_initialize
  1532 ;; This function is called by:
  1533 ;;		_main
  1534 ;; This function uses a non-reentrant model
  1535 ;;
  1536                           
  1537                           	psect	text4
  1538   002636                     __ptext4:
  1539                           	callstack 0
  1540   002636                     _application_initialize:
  1541                           	callstack 20
  1542   002636                     
  1543                           ;Password_safe.c: 158:     keypad_pin_initialize(&keypad);
  1544   002636  0E4F               	movlw	low _keypad
  1545   002638  0100               	movlb	0	; () banked
  1546   00263A  6FCE               	movwf	keypad_pin_initialize@keypad& (0+255),b
  1547   00263C  0E00               	movlw	high _keypad
  1548   00263E  6FCF               	movwf	(keypad_pin_initialize@keypad+1)& (0+255),b
  1549   002640  ECB3  F00E         	call	_keypad_pin_initialize	;wreg free
  1550                           
  1551                           ;Password_safe.c: 159:     lcd_pins_4_initialize(&lcd_4bit);
  1552   002644  0E57               	movlw	low _lcd_4bit
  1553   002646  0100               	movlb	0	; () banked
  1554   002648  6FD2               	movwf	lcd_pins_4_initialize@lcd& (0+255),b
  1555   00264A  0E00               	movlw	high _lcd_4bit
  1556   00264C  6FD3               	movwf	(lcd_pins_4_initialize@lcd+1)& (0+255),b
  1557   00264E  ECB5  F009         	call	_lcd_pins_4_initialize	;wreg free
  1558                           
  1559                           ;Password_safe.c: 160:     Interrupt_INTX_intialize(&INT0_obj);
  1560   002652  0EBB               	movlw	low _INT0_obj
  1561   002654  0100               	movlb	0	; () banked
  1562   002656  6FCB               	movwf	Interrupt_INTX_intialize@int_obj& (0+255),b
  1563   002658  0E00               	movlw	high _INT0_obj
  1564   00265A  6FCC               	movwf	(Interrupt_INTX_intialize@int_obj+1)& (0+255),b
  1565   00265C  ECEA  F012         	call	_Interrupt_INTX_intialize	;wreg free
  1566                           
  1567                           ;Password_safe.c: 161:     Interrupt_INTX_intialize(&INT1_obj);
  1568   002660  0EB5               	movlw	low _INT1_obj
  1569   002662  0100               	movlb	0	; () banked
  1570   002664  6FCB               	movwf	Interrupt_INTX_intialize@int_obj& (0+255),b
  1571   002666  0E00               	movlw	high _INT1_obj
  1572   002668  6FCC               	movwf	(Interrupt_INTX_intialize@int_obj+1)& (0+255),b
  1573   00266A  ECEA  F012         	call	_Interrupt_INTX_intialize	;wreg free
  1574                           
  1575                           ;Password_safe.c: 162:     Interrupt_INTX_intialize(&INT2_obj);
  1576   00266E  0EAF               	movlw	low _INT2_obj
  1577   002670  0100               	movlb	0	; () banked
  1578   002672  6FCB               	movwf	Interrupt_INTX_intialize@int_obj& (0+255),b
  1579   002674  0E00               	movlw	high _INT2_obj
  1580   002676  6FCC               	movwf	(Interrupt_INTX_intialize@int_obj+1)& (0+255),b
  1581   002678  ECEA  F012         	call	_Interrupt_INTX_intialize	;wreg free
  1582                           
  1583                           ;Password_safe.c: 163:     Interrupt_RBX_intialize(&RB_obj_1);
  1584   00267C  0EA9               	movlw	low _RB_obj_1
  1585   00267E  0100               	movlb	0	; () banked
  1586   002680  6FC9               	movwf	Interrupt_RBX_intialize@int_obj& (0+255),b
  1587   002682  0E00               	movlw	high _RB_obj_1
  1588   002684  6FCA               	movwf	(Interrupt_RBX_intialize@int_obj+1)& (0+255),b
  1589   002686  EC15  F009         	call	_Interrupt_RBX_intialize	;wreg free
  1590   00268A  0012               	return		;funcret
  1591   00268C                     __end_of_application_initialize:
  1592                           	callstack 0
  1593                           
  1594 ;; *************** function _lcd_pins_4_initialize *****************
  1595 ;; Defined at:
  1596 ;;		line 21 in file "ECU_layer/LCD/ecu_lcd.c"
  1597 ;; Parameters:    Size  Location     Type
  1598 ;;  lcd             2   17[BANK0 ] PTR const struct .
  1599 ;;		 -> lcd_4bit(6), 
  1600 ;; Auto vars:     Size  Location     Type
  1601 ;;  cnt_pin         1   21[BANK0 ] unsigned char 
  1602 ;;  ret             1   22[BANK0 ] unsigned char 
  1603 ;; Return value:  Size  Location     Type
  1604 ;;                  1    wreg      unsigned char 
  1605 ;; Registers used:
  1606 ;;		wreg, fsr2l, fsr2h, status,2, status,0, prodl, prodh, cstack
  1607 ;; Tracked objects:
  1608 ;;		On entry : 0/0
  1609 ;;		On exit  : 0/0
  1610 ;;		Unchanged: 0/0
  1611 ;; Data sizes:     COMRAM   BANK0   BANK1   BANK2   BANK3   BANK4   BANK5   BANK6   BANK7   BANK8   BANK9  BANK10  BANK1
      +1  BANK12  BANK13  BANK14  BANK15
  1612 ;;      Params:         0       2       0       0       0       0       0       0       0       0       0       0       
      +0       0       0       0       0
  1613 ;;      Locals:         0       2       0       0       0       0       0       0       0       0       0       0       
      +0       0       0       0       0
  1614 ;;      Temps:          0       2       0       0       0       0       0       0       0       0       0       0       
      +0       0       0       0       0
  1615 ;;      Totals:         0       6       0       0       0       0       0       0       0       0       0       0       
      +0       0       0       0       0
  1616 ;;Total ram usage:        6 bytes
  1617 ;; Hardware stack levels used: 1
  1618 ;; Hardware stack levels required when called: 9
  1619 ;; This function calls:
  1620 ;;		_gpio_pin_intialize
  1621 ;;		_send_4_bit_command
  1622 ;; This function is called by:
  1623 ;;		_application_initialize
  1624 ;; This function uses a non-reentrant model
  1625 ;;
  1626                           
  1627                           	psect	text5
  1628   00136A                     __ptext5:
  1629                           	callstack 0
  1630   00136A                     _lcd_pins_4_initialize:
  1631                           	callstack 20
  1632   00136A                     
  1633                           ;ECU_layer/LCD/ecu_lcd.c: 23:     if(((void*)0) == lcd)
  1634   00136A  0100               	movlb	0	; () banked
  1635   00136C  51D2               	movf	lcd_pins_4_initialize@lcd& (0+255),w,b
  1636   00136E  11D3               	iorwf	(lcd_pins_4_initialize@lcd+1)& (0+255),w,b
  1637   001370  A4D8               	btfss	status,2,c
  1638   001372  EFBD  F009         	goto	u3741
  1639   001376  EFBF  F009         	goto	u3740
  1640   00137A                     u3741:
  1641   00137A  EFC1  F009         	goto	l4401
  1642   00137E                     u3740:
  1643   00137E                     
  1644                           ; BSR set to: 0
  1645   00137E  EF52  F00A         	goto	l176
  1646   001382                     l4401:
  1647                           
  1648                           ; BSR set to: 0
  1649                           ;ECU_layer/LCD/ecu_lcd.c: 26:     {;ECU_layer/LCD/ecu_lcd.c: 27:         ret = gpio_pin_
      +                          intialize(&(lcd->rs_lcd));
  1650   001382  C0D2  F0CA         	movff	lcd_pins_4_initialize@lcd,gpio_pin_intialize@Pin_Config
  1651   001386  C0D3  F0CB         	movff	lcd_pins_4_initialize@lcd+1,gpio_pin_intialize@Pin_Config+1
  1652   00138A  ECE0  F011         	call	_gpio_pin_intialize	;wreg free
  1653   00138E  0100               	movlb	0	; () banked
  1654   001390  6FD7               	movwf	lcd_pins_4_initialize@ret& (0+255),b
  1655                           
  1656                           ;ECU_layer/LCD/ecu_lcd.c: 28:         ret = gpio_pin_intialize(&(lcd->en_lcd));
  1657   001392  0E05               	movlw	5
  1658   001394  25D2               	addwf	lcd_pins_4_initialize@lcd& (0+255),w,b
  1659   001396  6FCA               	movwf	gpio_pin_intialize@Pin_Config& (0+255),b
  1660   001398  0E00               	movlw	0
  1661   00139A  21D3               	addwfc	(lcd_pins_4_initialize@lcd+1)& (0+255),w,b
  1662   00139C  6FCB               	movwf	(gpio_pin_intialize@Pin_Config+1)& (0+255),b
  1663   00139E  ECE0  F011         	call	_gpio_pin_intialize	;wreg free
  1664   0013A2  0100               	movlb	0	; () banked
  1665   0013A4  6FD7               	movwf	lcd_pins_4_initialize@ret& (0+255),b
  1666   0013A6                     
  1667                           ; BSR set to: 0
  1668                           ;ECU_layer/LCD/ecu_lcd.c: 29:         for(uint8 cnt_pin = 0; cnt_pin < 4; cnt_pin++)
  1669   0013A6  0E00               	movlw	0
  1670   0013A8  6FD6               	movwf	lcd_pins_4_initialize@cnt_pin& (0+255),b
  1671   0013AA                     l4409:
  1672                           
  1673                           ; BSR set to: 0
  1674   0013AA  51D6               	movf	lcd_pins_4_initialize@cnt_pin& (0+255),w,b
  1675   0013AC  25D2               	addwf	lcd_pins_4_initialize@lcd& (0+255),w,b
  1676   0013AE  6FD4               	movwf	??_lcd_pins_4_initialize& (0+255),b
  1677   0013B0  0E00               	movlw	0
  1678   0013B2  21D3               	addwfc	(lcd_pins_4_initialize@lcd+1)& (0+255),w,b
  1679   0013B4  6FD5               	movwf	(??_lcd_pins_4_initialize+1)& (0+255),b
  1680   0013B6  0E01               	movlw	1
  1681   0013B8  25D4               	addwf	??_lcd_pins_4_initialize& (0+255),w,b
  1682   0013BA  6FCA               	movwf	gpio_pin_intialize@Pin_Config& (0+255),b
  1683   0013BC  0E00               	movlw	0
  1684   0013BE  21D5               	addwfc	(??_lcd_pins_4_initialize+1)& (0+255),w,b
  1685   0013C0  6FCB               	movwf	(gpio_pin_intialize@Pin_Config+1)& (0+255),b
  1686   0013C2  ECE0  F011         	call	_gpio_pin_intialize	;wreg free
  1687   0013C6  0100               	movlb	0	; () banked
  1688   0013C8  2BD6               	incf	lcd_pins_4_initialize@cnt_pin& (0+255),f,b
  1689   0013CA                     
  1690                           ; BSR set to: 0
  1691   0013CA  0E03               	movlw	3
  1692   0013CC  65D6               	cpfsgt	lcd_pins_4_initialize@cnt_pin& (0+255),b
  1693   0013CE  EFEB  F009         	goto	u3751
  1694   0013D2  EFED  F009         	goto	u3750
  1695   0013D6                     u3751:
  1696   0013D6  EFD5  F009         	goto	l4409
  1697   0013DA                     u3750:
  1698   0013DA                     
  1699                           ; BSR set to: 0
  1700                           ;ECU_layer/LCD/ecu_lcd.c: 32:         _delay((unsigned long)((20)*(4000000UL/4000.0)));
  1701   0013DA  0E1A               	movlw	26
  1702   0013DC  0100               	movlb	0	; () banked
  1703   0013DE  6FD4               	movwf	??_lcd_pins_4_initialize& (0+255),b
  1704   0013E0  0EF8               	movlw	248
  1705   0013E2                     u4267:
  1706   0013E2  2EE8               	decfsz	wreg,f,c
  1707   0013E4  D7FE               	bra	u4267
  1708   0013E6  2FD4               	decfsz	??_lcd_pins_4_initialize& (0+255),f,b
  1709   0013E8  D7FC               	bra	u4267
  1710   0013EA  F000               	nop	
  1711   0013EC  C0D2  F0CE         	movff	lcd_pins_4_initialize@lcd,send_4_bit_command@lcd
  1712   0013F0  C0D3  F0CF         	movff	lcd_pins_4_initialize@lcd+1,send_4_bit_command@lcd+1
  1713   0013F4  0E38               	movlw	56
  1714   0013F6  0100               	movlb	0	; () banked
  1715   0013F8  6FD0               	movwf	send_4_bit_command@command& (0+255),b
  1716   0013FA  EC2D  F011         	call	_send_4_bit_command	;wreg free
  1717   0013FE                     
  1718                           ;ECU_layer/LCD/ecu_lcd.c: 34:         _delay((unsigned long)((5)*(4000000UL/4000.0)));
  1719   0013FE  0E07               	movlw	7
  1720   001400  0100               	movlb	0	; () banked
  1721   001402  6FD4               	movwf	??_lcd_pins_4_initialize& (0+255),b
  1722   001404  0E7D               	movlw	125
  1723   001406                     u4277:
  1724   001406  2EE8               	decfsz	wreg,f,c
  1725   001408  D7FE               	bra	u4277
  1726   00140A  2FD4               	decfsz	??_lcd_pins_4_initialize& (0+255),f,b
  1727   00140C  D7FC               	bra	u4277
  1728   00140E  C0D2  F0CE         	movff	lcd_pins_4_initialize@lcd,send_4_bit_command@lcd
  1729   001412  C0D3  F0CF         	movff	lcd_pins_4_initialize@lcd+1,send_4_bit_command@lcd+1
  1730   001416  0E38               	movlw	56
  1731   001418  0100               	movlb	0	; () banked
  1732   00141A  6FD0               	movwf	send_4_bit_command@command& (0+255),b
  1733   00141C  EC2D  F011         	call	_send_4_bit_command	;wreg free
  1734   001420                     
  1735                           ;ECU_layer/LCD/ecu_lcd.c: 36:         _delay((unsigned long)((150)*(4000000UL/4000000.0)
      +                          ));
  1736   001420  0E32               	movlw	50
  1737   001422                     u4287:
  1738   001422  2EE8               	decfsz	wreg,f,c
  1739   001424  D7FE               	bra	u4287
  1740   001426  C0D2  F0CE         	movff	lcd_pins_4_initialize@lcd,send_4_bit_command@lcd
  1741   00142A  C0D3  F0CF         	movff	lcd_pins_4_initialize@lcd+1,send_4_bit_command@lcd+1
  1742   00142E  0E38               	movlw	56
  1743   001430  0100               	movlb	0	; () banked
  1744   001432  6FD0               	movwf	send_4_bit_command@command& (0+255),b
  1745   001434  EC2D  F011         	call	_send_4_bit_command	;wreg free
  1746   001438  C0D2  F0CE         	movff	lcd_pins_4_initialize@lcd,send_4_bit_command@lcd
  1747   00143C  C0D3  F0CF         	movff	lcd_pins_4_initialize@lcd+1,send_4_bit_command@lcd+1
  1748   001440  0E01               	movlw	1
  1749   001442  0100               	movlb	0	; () banked
  1750   001444  6FD0               	movwf	send_4_bit_command@command& (0+255),b
  1751   001446  EC2D  F011         	call	_send_4_bit_command	;wreg free
  1752   00144A  C0D2  F0CE         	movff	lcd_pins_4_initialize@lcd,send_4_bit_command@lcd
  1753   00144E  C0D3  F0CF         	movff	lcd_pins_4_initialize@lcd+1,send_4_bit_command@lcd+1
  1754   001452  0E02               	movlw	2
  1755   001454  0100               	movlb	0	; () banked
  1756   001456  6FD0               	movwf	send_4_bit_command@command& (0+255),b
  1757   001458  EC2D  F011         	call	_send_4_bit_command	;wreg free
  1758   00145C  C0D2  F0CE         	movff	lcd_pins_4_initialize@lcd,send_4_bit_command@lcd
  1759   001460  C0D3  F0CF         	movff	lcd_pins_4_initialize@lcd+1,send_4_bit_command@lcd+1
  1760   001464  0E06               	movlw	6
  1761   001466  0100               	movlb	0	; () banked
  1762   001468  6FD0               	movwf	send_4_bit_command@command& (0+255),b
  1763   00146A  EC2D  F011         	call	_send_4_bit_command	;wreg free
  1764   00146E  C0D2  F0CE         	movff	lcd_pins_4_initialize@lcd,send_4_bit_command@lcd
  1765   001472  C0D3  F0CF         	movff	lcd_pins_4_initialize@lcd+1,send_4_bit_command@lcd+1
  1766   001476  0E0C               	movlw	12
  1767   001478  0100               	movlb	0	; () banked
  1768   00147A  6FD0               	movwf	send_4_bit_command@command& (0+255),b
  1769   00147C  EC2D  F011         	call	_send_4_bit_command	;wreg free
  1770   001480  C0D2  F0CE         	movff	lcd_pins_4_initialize@lcd,send_4_bit_command@lcd
  1771   001484  C0D3  F0CF         	movff	lcd_pins_4_initialize@lcd+1,send_4_bit_command@lcd+1
  1772   001488  0E28               	movlw	40
  1773   00148A  0100               	movlb	0	; () banked
  1774   00148C  6FD0               	movwf	send_4_bit_command@command& (0+255),b
  1775   00148E  EC2D  F011         	call	_send_4_bit_command	;wreg free
  1776   001492                     
  1777                           ;ECU_layer/LCD/ecu_lcd.c: 43:         send_4_bit_command(lcd, 0x80);
  1778   001492  C0D2  F0CE         	movff	lcd_pins_4_initialize@lcd,send_4_bit_command@lcd
  1779   001496  C0D3  F0CF         	movff	lcd_pins_4_initialize@lcd+1,send_4_bit_command@lcd+1
  1780   00149A  0E80               	movlw	128
  1781   00149C  0100               	movlb	0	; () banked
  1782   00149E  6FD0               	movwf	send_4_bit_command@command& (0+255),b
  1783   0014A0  EC2D  F011         	call	_send_4_bit_command	;wreg free
  1784   0014A4                     l176:
  1785   0014A4  0012               	return		;funcret
  1786   0014A6                     __end_of_lcd_pins_4_initialize:
  1787                           	callstack 0
  1788                           
  1789 ;; *************** function _send_4_bit_command *****************
  1790 ;; Defined at:
  1791 ;;		line 47 in file "ECU_layer/LCD/ecu_lcd.c"
  1792 ;; Parameters:    Size  Location     Type
  1793 ;;  lcd             2   13[BANK0 ] PTR const struct .
  1794 ;;		 -> lcd_4bit(6), 
  1795 ;;  command         1   15[BANK0 ] unsigned char 
  1796 ;; Auto vars:     Size  Location     Type
  1797 ;;  ret             1   16[BANK0 ] unsigned char 
  1798 ;; Return value:  Size  Location     Type
  1799 ;;                  1    wreg      unsigned char 
  1800 ;; Registers used:
  1801 ;;		wreg, fsr2l, fsr2h, status,2, status,0, prodl, prodh, cstack
  1802 ;; Tracked objects:
  1803 ;;		On entry : 0/0
  1804 ;;		On exit  : 0/0
  1805 ;;		Unchanged: 0/0
  1806 ;; Data sizes:     COMRAM   BANK0   BANK1   BANK2   BANK3   BANK4   BANK5   BANK6   BANK7   BANK8   BANK9  BANK10  BANK1
      +1  BANK12  BANK13  BANK14  BANK15
  1807 ;;      Params:         0       3       0       0       0       0       0       0       0       0       0       0       
      +0       0       0       0       0
  1808 ;;      Locals:         0       1       0       0       0       0       0       0       0       0       0       0       
      +0       0       0       0       0
  1809 ;;      Temps:          0       0       0       0       0       0       0       0       0       0       0       0       
      +0       0       0       0       0
  1810 ;;      Totals:         0       4       0       0       0       0       0       0       0       0       0       0       
      +0       0       0       0       0
  1811 ;;Total ram usage:        4 bytes
  1812 ;; Hardware stack levels used: 1
  1813 ;; Hardware stack levels required when called: 8
  1814 ;; This function calls:
  1815 ;;		_gpio_pin_write_logic
  1816 ;;		_send_4_bit_enable
  1817 ;;		_send_4_bit_help
  1818 ;; This function is called by:
  1819 ;;		_main
  1820 ;;		_lcd_pins_4_initialize
  1821 ;;		_lcd_4_bit_set_cursor
  1822 ;;		_send_4_bit_custome_char_data_pos
  1823 ;; This function uses a non-reentrant model
  1824 ;;
  1825                           
  1826                           	psect	text6
  1827   00225A                     __ptext6:
  1828                           	callstack 0
  1829   00225A                     _send_4_bit_command:
  1830                           	callstack 20
  1831   00225A                     
  1832                           ;ECU_layer/LCD/ecu_lcd.c: 49:     if(((void*)0) == lcd)
  1833   00225A  0100               	movlb	0	; () banked
  1834   00225C  51CE               	movf	send_4_bit_command@lcd& (0+255),w,b
  1835   00225E  11CF               	iorwf	(send_4_bit_command@lcd+1)& (0+255),w,b
  1836   002260  A4D8               	btfss	status,2,c
  1837   002262  EF35  F011         	goto	u3551
  1838   002266  EF37  F011         	goto	u3550
  1839   00226A                     u3551:
  1840   00226A  EF3B  F011         	goto	l4183
  1841   00226E                     u3550:
  1842   00226E                     
  1843                           ; BSR set to: 0
  1844                           ;ECU_layer/LCD/ecu_lcd.c: 50:         ret = (Std_ReturnType)0x00;
  1845   00226E  0E00               	movlw	0
  1846   002270  6FD1               	movwf	send_4_bit_command@ret& (0+255),b
  1847   002272  EF6A  F011         	goto	l4185
  1848   002276                     l4183:
  1849                           
  1850                           ; BSR set to: 0
  1851                           ;ECU_layer/LCD/ecu_lcd.c: 52:     {;ECU_layer/LCD/ecu_lcd.c: 53:         ret = gpio_pin_
      +                          write_logic(&(lcd->rs_lcd),LOW);
  1852   002276  C0CE  F0C1         	movff	send_4_bit_command@lcd,gpio_pin_write_logic@Pin_Config
  1853   00227A  C0CF  F0C2         	movff	send_4_bit_command@lcd+1,gpio_pin_write_logic@Pin_Config+1
  1854   00227E  0E00               	movlw	0
  1855   002280  6FC3               	movwf	gpio_pin_write_logic@logic& (0+255),b
  1856   002282  EC85  F00B         	call	_gpio_pin_write_logic	;wreg free
  1857   002286  0100               	movlb	0	; () banked
  1858   002288  6FD1               	movwf	send_4_bit_command@ret& (0+255),b
  1859                           
  1860                           ;ECU_layer/LCD/ecu_lcd.c: 54:         ret = send_4_bit_help(lcd,command >> 4);
  1861   00228A  C0CE  F0CA         	movff	send_4_bit_command@lcd,send_4_bit_help@lcd
  1862   00228E  C0CF  F0CB         	movff	send_4_bit_command@lcd+1,send_4_bit_help@lcd+1
  1863   002292  39D0               	swapf	send_4_bit_command@command& (0+255),w,b
  1864   002294  0B0F               	andlw	15
  1865   002296  6FCC               	movwf	send_4_bit_help@data_command& (0+255),b
  1866   002298  EC55  F00F         	call	_send_4_bit_help	;wreg free
  1867   00229C  0100               	movlb	0	; () banked
  1868   00229E  6FD1               	movwf	send_4_bit_command@ret& (0+255),b
  1869                           
  1870                           ;ECU_layer/LCD/ecu_lcd.c: 55:         ret = send_4_bit_enable(lcd);
  1871   0022A0  C0CE  F0CA         	movff	send_4_bit_command@lcd,send_4_bit_enable@lcd
  1872   0022A4  C0CF  F0CB         	movff	send_4_bit_command@lcd+1,send_4_bit_enable@lcd+1
  1873   0022A8  EC46  F013         	call	_send_4_bit_enable	;wreg free
  1874   0022AC  0100               	movlb	0	; () banked
  1875   0022AE  6FD1               	movwf	send_4_bit_command@ret& (0+255),b
  1876                           
  1877                           ;ECU_layer/LCD/ecu_lcd.c: 56:         ret = send_4_bit_help(lcd,command);
  1878   0022B0  C0CE  F0CA         	movff	send_4_bit_command@lcd,send_4_bit_help@lcd
  1879   0022B4  C0CF  F0CB         	movff	send_4_bit_command@lcd+1,send_4_bit_help@lcd+1
  1880   0022B8  C0D0  F0CC         	movff	send_4_bit_command@command,send_4_bit_help@data_command
  1881   0022BC  EC55  F00F         	call	_send_4_bit_help	;wreg free
  1882   0022C0  0100               	movlb	0	; () banked
  1883   0022C2  6FD1               	movwf	send_4_bit_command@ret& (0+255),b
  1884                           
  1885                           ;ECU_layer/LCD/ecu_lcd.c: 57:         ret = send_4_bit_enable(lcd);
  1886   0022C4  C0CE  F0CA         	movff	send_4_bit_command@lcd,send_4_bit_enable@lcd
  1887   0022C8  C0CF  F0CB         	movff	send_4_bit_command@lcd+1,send_4_bit_enable@lcd+1
  1888   0022CC  EC46  F013         	call	_send_4_bit_enable	;wreg free
  1889   0022D0  0100               	movlb	0	; () banked
  1890   0022D2  6FD1               	movwf	send_4_bit_command@ret& (0+255),b
  1891   0022D4                     l4185:
  1892                           
  1893                           ; BSR set to: 0
  1894                           ;ECU_layer/LCD/ecu_lcd.c: 59:              return ret;
  1895   0022D4  51D1               	movf	send_4_bit_command@ret& (0+255),w,b
  1896   0022D6                     
  1897                           ; BSR set to: 0
  1898   0022D6  0012               	return		;funcret
  1899   0022D8                     __end_of_send_4_bit_command:
  1900                           	callstack 0
  1901                           
  1902 ;; *************** function _send_4_bit_help *****************
  1903 ;; Defined at:
  1904 ;;		line 125 in file "ECU_layer/LCD/ecu_lcd.c"
  1905 ;; Parameters:    Size  Location     Type
  1906 ;;  lcd             2    9[BANK0 ] PTR const struct .
  1907 ;;		 -> lcd_4bit(6), 
  1908 ;;  data_command    1   11[BANK0 ] unsigned char 
  1909 ;; Auto vars:     Size  Location     Type
  1910 ;;  ret             1   12[BANK0 ] unsigned char 
  1911 ;; Return value:  Size  Location     Type
  1912 ;;                  1    wreg      unsigned char 
  1913 ;; Registers used:
  1914 ;;		wreg, fsr2l, fsr2h, status,2, status,0, prodl, prodh, cstack
  1915 ;; Tracked objects:
  1916 ;;		On entry : 0/0
  1917 ;;		On exit  : 0/0
  1918 ;;		Unchanged: 0/0
  1919 ;; Data sizes:     COMRAM   BANK0   BANK1   BANK2   BANK3   BANK4   BANK5   BANK6   BANK7   BANK8   BANK9  BANK10  BANK1
      +1  BANK12  BANK13  BANK14  BANK15
  1920 ;;      Params:         0       3       0       0       0       0       0       0       0       0       0       0       
      +0       0       0       0       0
  1921 ;;      Locals:         0       1       0       0       0       0       0       0       0       0       0       0       
      +0       0       0       0       0
  1922 ;;      Temps:          0       0       0       0       0       0       0       0       0       0       0       0       
      +0       0       0       0       0
  1923 ;;      Totals:         0       4       0       0       0       0       0       0       0       0       0       0       
      +0       0       0       0       0
  1924 ;;Total ram usage:        4 bytes
  1925 ;; Hardware stack levels used: 1
  1926 ;; Hardware stack levels required when called: 7
  1927 ;; This function calls:
  1928 ;;		_gpio_pin_write_logic
  1929 ;; This function is called by:
  1930 ;;		_send_4_bit_command
  1931 ;;		_send_4_bit_char_data
  1932 ;; This function uses a non-reentrant model
  1933 ;;
  1934                           
  1935                           	psect	text7
  1936   001EAA                     __ptext7:
  1937                           	callstack 0
  1938   001EAA                     _send_4_bit_help:
  1939                           	callstack 21
  1940   001EAA                     
  1941                           ;ECU_layer/LCD/ecu_lcd.c: 127:     if(((void*)0) == lcd)
  1942   001EAA  0100               	movlb	0	; () banked
  1943   001EAC  51CA               	movf	send_4_bit_help@lcd& (0+255),w,b
  1944   001EAE  11CB               	iorwf	(send_4_bit_help@lcd+1)& (0+255),w,b
  1945   001EB0  A4D8               	btfss	status,2,c
  1946   001EB2  EF5D  F00F         	goto	u3491
  1947   001EB6  EF5F  F00F         	goto	u3490
  1948   001EBA                     u3491:
  1949   001EBA  EF63  F00F         	goto	l4119
  1950   001EBE                     u3490:
  1951   001EBE                     
  1952                           ; BSR set to: 0
  1953                           ;ECU_layer/LCD/ecu_lcd.c: 128:         ret = (Std_ReturnType)0x00;
  1954   001EBE  0E00               	movlw	0
  1955   001EC0  6FCD               	movwf	send_4_bit_help@ret& (0+255),b
  1956   001EC2  EF9C  F00F         	goto	l4121
  1957   001EC6                     l4119:
  1958                           
  1959                           ; BSR set to: 0
  1960                           ;ECU_layer/LCD/ecu_lcd.c: 130:     {;ECU_layer/LCD/ecu_lcd.c: 131:            ret = gpio
      +                          _pin_write_logic(&(lcd->lcd_pin[0]),((data_command >> 0)& (uint8)0x01));
  1961   001EC6  0E01               	movlw	1
  1962   001EC8  25CA               	addwf	send_4_bit_help@lcd& (0+255),w,b
  1963   001ECA  6FC1               	movwf	gpio_pin_write_logic@Pin_Config& (0+255),b
  1964   001ECC  0E00               	movlw	0
  1965   001ECE  21CB               	addwfc	(send_4_bit_help@lcd+1)& (0+255),w,b
  1966   001ED0  6FC2               	movwf	(gpio_pin_write_logic@Pin_Config+1)& (0+255),b
  1967   001ED2  51CC               	movf	send_4_bit_help@data_command& (0+255),w,b
  1968   001ED4  0B01               	andlw	1
  1969   001ED6  6FC3               	movwf	gpio_pin_write_logic@logic& (0+255),b
  1970   001ED8  EC85  F00B         	call	_gpio_pin_write_logic	;wreg free
  1971   001EDC  0100               	movlb	0	; () banked
  1972   001EDE  6FCD               	movwf	send_4_bit_help@ret& (0+255),b
  1973                           
  1974                           ;ECU_layer/LCD/ecu_lcd.c: 132:            ret = gpio_pin_write_logic(&(lcd->lcd_pin[1]),
      +                          ((data_command >> 1)& (uint8)0x01));
  1975   001EE0  0E02               	movlw	2
  1976   001EE2  25CA               	addwf	send_4_bit_help@lcd& (0+255),w,b
  1977   001EE4  6FC1               	movwf	gpio_pin_write_logic@Pin_Config& (0+255),b
  1978   001EE6  0E00               	movlw	0
  1979   001EE8  21CB               	addwfc	(send_4_bit_help@lcd+1)& (0+255),w,b
  1980   001EEA  6FC2               	movwf	(gpio_pin_write_logic@Pin_Config+1)& (0+255),b
  1981   001EEC  90D8               	bcf	status,0,c
  1982   001EEE  31CC               	rrcf	send_4_bit_help@data_command& (0+255),w,b
  1983   001EF0  0B01               	andlw	1
  1984   001EF2  6FC3               	movwf	gpio_pin_write_logic@logic& (0+255),b
  1985   001EF4  EC85  F00B         	call	_gpio_pin_write_logic	;wreg free
  1986   001EF8  0100               	movlb	0	; () banked
  1987   001EFA  6FCD               	movwf	send_4_bit_help@ret& (0+255),b
  1988                           
  1989                           ;ECU_layer/LCD/ecu_lcd.c: 133:            ret = gpio_pin_write_logic(&(lcd->lcd_pin[2]),
      +                          ((data_command >> 2)& (uint8)0x01));
  1990   001EFC  0E03               	movlw	3
  1991   001EFE  25CA               	addwf	send_4_bit_help@lcd& (0+255),w,b
  1992   001F00  6FC1               	movwf	gpio_pin_write_logic@Pin_Config& (0+255),b
  1993   001F02  0E00               	movlw	0
  1994   001F04  21CB               	addwfc	(send_4_bit_help@lcd+1)& (0+255),w,b
  1995   001F06  6FC2               	movwf	(gpio_pin_write_logic@Pin_Config+1)& (0+255),b
  1996   001F08  41CC               	rrncf	send_4_bit_help@data_command& (0+255),w,b
  1997   001F0A  42E8               	rrncf	wreg,f,c
  1998   001F0C  0B3F               	andlw	63
  1999   001F0E  0B01               	andlw	1
  2000   001F10  6FC3               	movwf	gpio_pin_write_logic@logic& (0+255),b
  2001   001F12  EC85  F00B         	call	_gpio_pin_write_logic	;wreg free
  2002   001F16  0100               	movlb	0	; () banked
  2003   001F18  6FCD               	movwf	send_4_bit_help@ret& (0+255),b
  2004                           
  2005                           ;ECU_layer/LCD/ecu_lcd.c: 134:            ret = gpio_pin_write_logic(&(lcd->lcd_pin[3]),
      +                          ((data_command >> 3)& (uint8)0x01));
  2006   001F1A  0E04               	movlw	4
  2007   001F1C  25CA               	addwf	send_4_bit_help@lcd& (0+255),w,b
  2008   001F1E  6FC1               	movwf	gpio_pin_write_logic@Pin_Config& (0+255),b
  2009   001F20  0E00               	movlw	0
  2010   001F22  21CB               	addwfc	(send_4_bit_help@lcd+1)& (0+255),w,b
  2011   001F24  6FC2               	movwf	(gpio_pin_write_logic@Pin_Config+1)& (0+255),b
  2012   001F26  39CC               	swapf	send_4_bit_help@data_command& (0+255),w,b
  2013   001F28  46E8               	rlncf	wreg,f,c
  2014   001F2A  0B1F               	andlw	31
  2015   001F2C  0B01               	andlw	1
  2016   001F2E  6FC3               	movwf	gpio_pin_write_logic@logic& (0+255),b
  2017   001F30  EC85  F00B         	call	_gpio_pin_write_logic	;wreg free
  2018   001F34  0100               	movlb	0	; () banked
  2019   001F36  6FCD               	movwf	send_4_bit_help@ret& (0+255),b
  2020   001F38                     l4121:
  2021                           
  2022                           ; BSR set to: 0
  2023                           ;ECU_layer/LCD/ecu_lcd.c: 136:              return ret;
  2024   001F38  51CD               	movf	send_4_bit_help@ret& (0+255),w,b
  2025   001F3A                     
  2026                           ; BSR set to: 0
  2027   001F3A  0012               	return		;funcret
  2028   001F3C                     __end_of_send_4_bit_help:
  2029                           	callstack 0
  2030                           
  2031 ;; *************** function _send_4_bit_enable *****************
  2032 ;; Defined at:
  2033 ;;		line 75 in file "ECU_layer/LCD/ecu_lcd.c"
  2034 ;; Parameters:    Size  Location     Type
  2035 ;;  lcd             2    9[BANK0 ] PTR const struct .
  2036 ;;		 -> lcd_4bit(6), 
  2037 ;; Auto vars:     Size  Location     Type
  2038 ;;  ret             1   11[BANK0 ] unsigned char 
  2039 ;; Return value:  Size  Location     Type
  2040 ;;                  1    wreg      unsigned char 
  2041 ;; Registers used:
  2042 ;;		wreg, fsr2l, fsr2h, status,2, status,0, prodl, prodh, cstack
  2043 ;; Tracked objects:
  2044 ;;		On entry : 0/0
  2045 ;;		On exit  : 0/0
  2046 ;;		Unchanged: 0/0
  2047 ;; Data sizes:     COMRAM   BANK0   BANK1   BANK2   BANK3   BANK4   BANK5   BANK6   BANK7   BANK8   BANK9  BANK10  BANK1
      +1  BANK12  BANK13  BANK14  BANK15
  2048 ;;      Params:         0       2       0       0       0       0       0       0       0       0       0       0       
      +0       0       0       0       0
  2049 ;;      Locals:         0       1       0       0       0       0       0       0       0       0       0       0       
      +0       0       0       0       0
  2050 ;;      Temps:          0       0       0       0       0       0       0       0       0       0       0       0       
      +0       0       0       0       0
  2051 ;;      Totals:         0       3       0       0       0       0       0       0       0       0       0       0       
      +0       0       0       0       0
  2052 ;;Total ram usage:        3 bytes
  2053 ;; Hardware stack levels used: 1
  2054 ;; Hardware stack levels required when called: 7
  2055 ;; This function calls:
  2056 ;;		_gpio_pin_write_logic
  2057 ;; This function is called by:
  2058 ;;		_send_4_bit_command
  2059 ;;		_send_4_bit_char_data
  2060 ;; This function uses a non-reentrant model
  2061 ;;
  2062                           
  2063                           	psect	text8
  2064   00268C                     __ptext8:
  2065                           	callstack 0
  2066   00268C                     _send_4_bit_enable:
  2067                           	callstack 21
  2068   00268C                     
  2069                           ;ECU_layer/LCD/ecu_lcd.c: 77:     if(((void*)0) == lcd)
  2070   00268C  0100               	movlb	0	; () banked
  2071   00268E  51CA               	movf	send_4_bit_enable@lcd& (0+255),w,b
  2072   002690  11CB               	iorwf	(send_4_bit_enable@lcd+1)& (0+255),w,b
  2073   002692  A4D8               	btfss	status,2,c
  2074   002694  EF4E  F013         	goto	u3501
  2075   002698  EF50  F013         	goto	u3500
  2076   00269C                     u3501:
  2077   00269C  EF54  F013         	goto	l4131
  2078   0026A0                     u3500:
  2079   0026A0                     
  2080                           ; BSR set to: 0
  2081                           ;ECU_layer/LCD/ecu_lcd.c: 78:         ret = (Std_ReturnType)0x00;
  2082   0026A0  0E00               	movlw	0
  2083   0026A2  6FCC               	movwf	send_4_bit_enable@ret& (0+255),b
  2084   0026A4  EF6E  F013         	goto	l4135
  2085   0026A8                     l4131:
  2086                           
  2087                           ; BSR set to: 0
  2088   0026A8  0E05               	movlw	5
  2089   0026AA  25CA               	addwf	send_4_bit_enable@lcd& (0+255),w,b
  2090   0026AC  6FC1               	movwf	gpio_pin_write_logic@Pin_Config& (0+255),b
  2091   0026AE  0E00               	movlw	0
  2092   0026B0  21CB               	addwfc	(send_4_bit_enable@lcd+1)& (0+255),w,b
  2093   0026B2  6FC2               	movwf	(gpio_pin_write_logic@Pin_Config+1)& (0+255),b
  2094   0026B4  0E01               	movlw	1
  2095   0026B6  6FC3               	movwf	gpio_pin_write_logic@logic& (0+255),b
  2096   0026B8  EC85  F00B         	call	_gpio_pin_write_logic	;wreg free
  2097   0026BC                     
  2098                           ;ECU_layer/LCD/ecu_lcd.c: 82:         _delay((unsigned long)((5)*(4000000UL/4000000.0)))
      +                          ;
  2099   0026BC  D000               	nop2		;2 cycle nop
  2100   0026BE  D000               	nop2		;2 cycle nop
  2101   0026C0  F000               	nop	
  2102                           
  2103                           ;ECU_layer/LCD/ecu_lcd.c: 83:         ret = gpio_pin_write_logic(&(lcd->en_lcd),LOW);
  2104   0026C2  0E05               	movlw	5
  2105   0026C4  0100               	movlb	0	; () banked
  2106   0026C6  25CA               	addwf	send_4_bit_enable@lcd& (0+255),w,b
  2107   0026C8  6FC1               	movwf	gpio_pin_write_logic@Pin_Config& (0+255),b
  2108   0026CA  0E00               	movlw	0
  2109   0026CC  21CB               	addwfc	(send_4_bit_enable@lcd+1)& (0+255),w,b
  2110   0026CE  6FC2               	movwf	(gpio_pin_write_logic@Pin_Config+1)& (0+255),b
  2111   0026D0  0E00               	movlw	0
  2112   0026D2  6FC3               	movwf	gpio_pin_write_logic@logic& (0+255),b
  2113   0026D4  EC85  F00B         	call	_gpio_pin_write_logic	;wreg free
  2114   0026D8  0100               	movlb	0	; () banked
  2115   0026DA  6FCC               	movwf	send_4_bit_enable@ret& (0+255),b
  2116   0026DC                     l4135:
  2117                           
  2118                           ; BSR set to: 0
  2119                           ;ECU_layer/LCD/ecu_lcd.c: 85:         return ret;
  2120   0026DC  51CC               	movf	send_4_bit_enable@ret& (0+255),w,b
  2121   0026DE                     
  2122                           ; BSR set to: 0
  2123   0026DE  0012               	return		;funcret
  2124   0026E0                     __end_of_send_4_bit_enable:
  2125                           	callstack 0
  2126                           
  2127 ;; *************** function _keypad_pin_initialize *****************
  2128 ;; Defined at:
  2129 ;;		line 21 in file "ECU_layer/keypad/ecu_keypad.c"
  2130 ;; Parameters:    Size  Location     Type
  2131 ;;  keypad          2   13[BANK0 ] PTR const struct .
  2132 ;;		 -> keypad(8), 
  2133 ;; Auto vars:     Size  Location     Type
  2134 ;;  ret             1    0        unsigned char 
  2135 ;; Return value:  Size  Location     Type
  2136 ;;                  1    wreg      unsigned char 
  2137 ;; Registers used:
  2138 ;;		wreg, fsr2l, fsr2h, status,2, status,0, prodl, prodh, cstack
  2139 ;; Tracked objects:
  2140 ;;		On entry : 0/0
  2141 ;;		On exit  : 0/0
  2142 ;;		Unchanged: 0/0
  2143 ;; Data sizes:     COMRAM   BANK0   BANK1   BANK2   BANK3   BANK4   BANK5   BANK6   BANK7   BANK8   BANK9  BANK10  BANK1
      +1  BANK12  BANK13  BANK14  BANK15
  2144 ;;      Params:         0       2       0       0       0       0       0       0       0       0       0       0       
      +0       0       0       0       0
  2145 ;;      Locals:         0       0       0       0       0       0       0       0       0       0       0       0       
      +0       0       0       0       0
  2146 ;;      Temps:          0       0       0       0       0       0       0       0       0       0       0       0       
      +0       0       0       0       0
  2147 ;;      Totals:         0       2       0       0       0       0       0       0       0       0       0       0       
      +0       0       0       0       0
  2148 ;;Total ram usage:        2 bytes
  2149 ;; Hardware stack levels used: 1
  2150 ;; Hardware stack levels required when called: 8
  2151 ;; This function calls:
  2152 ;;		_gpio_pin_direction_intialize
  2153 ;;		_gpio_pin_intialize
  2154 ;; This function is called by:
  2155 ;;		_application_initialize
  2156 ;; This function uses a non-reentrant model
  2157 ;;
  2158                           
  2159                           	psect	text9
  2160   001D66                     __ptext9:
  2161                           	callstack 0
  2162   001D66                     _keypad_pin_initialize:
  2163                           	callstack 21
  2164   001D66                     
  2165                           ;ECU_layer/keypad/ecu_keypad.c: 23:     if(((void*)0) == keypad)
  2166   001D66  0100               	movlb	0	; () banked
  2167   001D68  51CE               	movf	keypad_pin_initialize@keypad& (0+255),w,b
  2168   001D6A  11CF               	iorwf	(keypad_pin_initialize@keypad+1)& (0+255),w,b
  2169   001D6C  A4D8               	btfss	status,2,c
  2170   001D6E  EFBB  F00E         	goto	u3731
  2171   001D72  EFBD  F00E         	goto	u3730
  2172   001D76                     u3731:
  2173   001D76  EFBF  F00E         	goto	l4391
  2174   001D7A                     u3730:
  2175   001D7A                     
  2176                           ; BSR set to: 0
  2177   001D7A  EF04  F00F         	goto	l111
  2178   001D7E                     l4391:
  2179                           
  2180                           ; BSR set to: 0
  2181                           ;ECU_layer/keypad/ecu_keypad.c: 26:         gpio_pin_intialize(&(keypad->keyad_row_pin[0
      +                          ]));
  2182   001D7E  C0CE  F0CA         	movff	keypad_pin_initialize@keypad,gpio_pin_intialize@Pin_Config
  2183   001D82  C0CF  F0CB         	movff	keypad_pin_initialize@keypad+1,gpio_pin_intialize@Pin_Config+1
  2184   001D86  ECE0  F011         	call	_gpio_pin_intialize	;wreg free
  2185                           
  2186                           ;ECU_layer/keypad/ecu_keypad.c: 27:         gpio_pin_intialize(&(keypad->keyad_row_pin[1
      +                          ]));
  2187   001D8A  0E01               	movlw	1
  2188   001D8C  0100               	movlb	0	; () banked
  2189   001D8E  25CE               	addwf	keypad_pin_initialize@keypad& (0+255),w,b
  2190   001D90  6FCA               	movwf	gpio_pin_intialize@Pin_Config& (0+255),b
  2191   001D92  0E00               	movlw	0
  2192   001D94  21CF               	addwfc	(keypad_pin_initialize@keypad+1)& (0+255),w,b
  2193   001D96  6FCB               	movwf	(gpio_pin_intialize@Pin_Config+1)& (0+255),b
  2194   001D98  ECE0  F011         	call	_gpio_pin_intialize	;wreg free
  2195                           
  2196                           ;ECU_layer/keypad/ecu_keypad.c: 28:         gpio_pin_intialize(&(keypad->keyad_row_pin[2
      +                          ]));
  2197   001D9C  0E02               	movlw	2
  2198   001D9E  0100               	movlb	0	; () banked
  2199   001DA0  25CE               	addwf	keypad_pin_initialize@keypad& (0+255),w,b
  2200   001DA2  6FCA               	movwf	gpio_pin_intialize@Pin_Config& (0+255),b
  2201   001DA4  0E00               	movlw	0
  2202   001DA6  21CF               	addwfc	(keypad_pin_initialize@keypad+1)& (0+255),w,b
  2203   001DA8  6FCB               	movwf	(gpio_pin_intialize@Pin_Config+1)& (0+255),b
  2204   001DAA  ECE0  F011         	call	_gpio_pin_intialize	;wreg free
  2205                           
  2206                           ;ECU_layer/keypad/ecu_keypad.c: 29:         gpio_pin_intialize(&(keypad->keyad_row_pin[3
      +                          ]));
  2207   001DAE  0E03               	movlw	3
  2208   001DB0  0100               	movlb	0	; () banked
  2209   001DB2  25CE               	addwf	keypad_pin_initialize@keypad& (0+255),w,b
  2210   001DB4  6FCA               	movwf	gpio_pin_intialize@Pin_Config& (0+255),b
  2211   001DB6  0E00               	movlw	0
  2212   001DB8  21CF               	addwfc	(keypad_pin_initialize@keypad+1)& (0+255),w,b
  2213   001DBA  6FCB               	movwf	(gpio_pin_intialize@Pin_Config+1)& (0+255),b
  2214   001DBC  ECE0  F011         	call	_gpio_pin_intialize	;wreg free
  2215                           
  2216                           ;ECU_layer/keypad/ecu_keypad.c: 30:         gpio_pin_direction_intialize(&(keypad->keyad
      +                          _column_pin[0]));
  2217   001DC0  0E04               	movlw	4
  2218   001DC2  0100               	movlb	0	; () banked
  2219   001DC4  25CE               	addwf	keypad_pin_initialize@keypad& (0+255),w,b
  2220   001DC6  6FC1               	movwf	gpio_pin_direction_intialize@Pin_Config& (0+255),b
  2221   001DC8  0E00               	movlw	0
  2222   001DCA  21CF               	addwfc	(keypad_pin_initialize@keypad+1)& (0+255),w,b
  2223   001DCC  6FC2               	movwf	(gpio_pin_direction_intialize@Pin_Config+1)& (0+255),b
  2224   001DCE  ECF0  F00A         	call	_gpio_pin_direction_intialize	;wreg free
  2225                           
  2226                           ;ECU_layer/keypad/ecu_keypad.c: 31:         gpio_pin_direction_intialize(&(keypad->keyad
      +                          _column_pin[1]));
  2227   001DD2  0E05               	movlw	5
  2228   001DD4  0100               	movlb	0	; () banked
  2229   001DD6  25CE               	addwf	keypad_pin_initialize@keypad& (0+255),w,b
  2230   001DD8  6FC1               	movwf	gpio_pin_direction_intialize@Pin_Config& (0+255),b
  2231   001DDA  0E00               	movlw	0
  2232   001DDC  21CF               	addwfc	(keypad_pin_initialize@keypad+1)& (0+255),w,b
  2233   001DDE  6FC2               	movwf	(gpio_pin_direction_intialize@Pin_Config+1)& (0+255),b
  2234   001DE0  ECF0  F00A         	call	_gpio_pin_direction_intialize	;wreg free
  2235                           
  2236                           ;ECU_layer/keypad/ecu_keypad.c: 32:         gpio_pin_direction_intialize(&(keypad->keyad
      +                          _column_pin[2]));
  2237   001DE4  0E06               	movlw	6
  2238   001DE6  0100               	movlb	0	; () banked
  2239   001DE8  25CE               	addwf	keypad_pin_initialize@keypad& (0+255),w,b
  2240   001DEA  6FC1               	movwf	gpio_pin_direction_intialize@Pin_Config& (0+255),b
  2241   001DEC  0E00               	movlw	0
  2242   001DEE  21CF               	addwfc	(keypad_pin_initialize@keypad+1)& (0+255),w,b
  2243   001DF0  6FC2               	movwf	(gpio_pin_direction_intialize@Pin_Config+1)& (0+255),b
  2244   001DF2  ECF0  F00A         	call	_gpio_pin_direction_intialize	;wreg free
  2245                           
  2246                           ;ECU_layer/keypad/ecu_keypad.c: 33:         gpio_pin_direction_intialize(&(keypad->keyad
      +                          _column_pin[3]));
  2247   001DF6  0E07               	movlw	7
  2248   001DF8  0100               	movlb	0	; () banked
  2249   001DFA  25CE               	addwf	keypad_pin_initialize@keypad& (0+255),w,b
  2250   001DFC  6FC1               	movwf	gpio_pin_direction_intialize@Pin_Config& (0+255),b
  2251   001DFE  0E00               	movlw	0
  2252   001E00  21CF               	addwfc	(keypad_pin_initialize@keypad+1)& (0+255),w,b
  2253   001E02  6FC2               	movwf	(gpio_pin_direction_intialize@Pin_Config+1)& (0+255),b
  2254   001E04  ECF0  F00A         	call	_gpio_pin_direction_intialize	;wreg free
  2255   001E08                     l111:
  2256   001E08  0012               	return		;funcret
  2257   001E0A                     __end_of_keypad_pin_initialize:
  2258                           	callstack 0
  2259                           
  2260 ;; *************** function _gpio_pin_intialize *****************
  2261 ;; Defined at:
  2262 ;;		line 136 in file "MCAL_layer/GPIO/gpio.c"
  2263 ;; Parameters:    Size  Location     Type
  2264 ;;  Pin_Config      2    9[BANK0 ] PTR const struct .
  2265 ;;		 -> lcd_4bit.lcd_pin(4), lcd_4bit(6), keypad.keyad_row_pin(4), keypad(8), 
  2266 ;; Auto vars:     Size  Location     Type
  2267 ;;  ret             1   12[BANK0 ] unsigned char 
  2268 ;; Return value:  Size  Location     Type
  2269 ;;                  1    wreg      unsigned char 
  2270 ;; Registers used:
  2271 ;;		wreg, fsr2l, fsr2h, status,2, status,0, prodl, prodh, cstack
  2272 ;; Tracked objects:
  2273 ;;		On entry : 0/0
  2274 ;;		On exit  : 0/0
  2275 ;;		Unchanged: 0/0
  2276 ;; Data sizes:     COMRAM   BANK0   BANK1   BANK2   BANK3   BANK4   BANK5   BANK6   BANK7   BANK8   BANK9  BANK10  BANK1
      +1  BANK12  BANK13  BANK14  BANK15
  2277 ;;      Params:         0       2       0       0       0       0       0       0       0       0       0       0       
      +0       0       0       0       0
  2278 ;;      Locals:         0       1       0       0       0       0       0       0       0       0       0       0       
      +0       0       0       0       0
  2279 ;;      Temps:          0       1       0       0       0       0       0       0       0       0       0       0       
      +0       0       0       0       0
  2280 ;;      Totals:         0       4       0       0       0       0       0       0       0       0       0       0       
      +0       0       0       0       0
  2281 ;;Total ram usage:        4 bytes
  2282 ;; Hardware stack levels used: 1
  2283 ;; Hardware stack levels required when called: 7
  2284 ;; This function calls:
  2285 ;;		_gpio_pin_direction_intialize
  2286 ;;		_gpio_pin_write_logic
  2287 ;; This function is called by:
  2288 ;;		_keypad_pin_initialize
  2289 ;;		_lcd_pins_4_initialize
  2290 ;;		_lcd_pins_8_initialize
  2291 ;; This function uses a non-reentrant model
  2292 ;;
  2293                           
  2294                           	psect	text10
  2295   0023C0                     __ptext10:
  2296                           	callstack 0
  2297   0023C0                     _gpio_pin_intialize:
  2298                           	callstack 21
  2299   0023C0                     
  2300                           ;MCAL_layer/GPIO/gpio.c: 138:     if(((void*)0) == Pin_Config || Pin_Config->pin > 8)
  2301   0023C0  0100               	movlb	0	; () banked
  2302   0023C2  51CA               	movf	gpio_pin_intialize@Pin_Config& (0+255),w,b
  2303   0023C4  11CB               	iorwf	(gpio_pin_intialize@Pin_Config+1)& (0+255),w,b
  2304   0023C6  B4D8               	btfsc	status,2,c
  2305   0023C8  EFE8  F011         	goto	u3561
  2306   0023CC  EFEA  F011         	goto	u3560
  2307   0023D0                     u3561:
  2308   0023D0  EFFB  F011         	goto	l4195
  2309   0023D4                     u3560:
  2310   0023D4                     
  2311                           ; BSR set to: 0
  2312   0023D4  C0CA  FFD9         	movff	gpio_pin_intialize@Pin_Config,fsr2l
  2313   0023D8  C0CB  FFDA         	movff	gpio_pin_intialize@Pin_Config+1,fsr2h
  2314   0023DC  30DF               	rrcf	223,w,c
  2315   0023DE  32E8               	rrcf	wreg,f,c
  2316   0023E0  32E8               	rrcf	wreg,f,c
  2317   0023E2  0B07               	andlw	7
  2318   0023E4  6FCC               	movwf	??_gpio_pin_intialize& (0+255),b
  2319   0023E6  0E08               	movlw	8
  2320   0023E8  65CC               	cpfsgt	??_gpio_pin_intialize& (0+255),b
  2321   0023EA  EFF9  F011         	goto	u3571
  2322   0023EE  EFFB  F011         	goto	u3570
  2323   0023F2                     u3571:
  2324   0023F2  EFFF  F011         	goto	l4197
  2325   0023F6                     u3570:
  2326   0023F6                     l4195:
  2327                           
  2328                           ; BSR set to: 0
  2329                           ;MCAL_layer/GPIO/gpio.c: 139:         ret = (Std_ReturnType)0x00;
  2330   0023F6  0E00               	movlw	0
  2331   0023F8  6FCD               	movwf	gpio_pin_intialize@ret& (0+255),b
  2332   0023FA  EF17  F012         	goto	l4199
  2333   0023FE                     l4197:
  2334                           
  2335                           ; BSR set to: 0
  2336                           ;MCAL_layer/GPIO/gpio.c: 141:     {;MCAL_layer/GPIO/gpio.c: 142:        ret = gpio_pin_d
      +                          irection_intialize(Pin_Config);
  2337   0023FE  C0CA  F0C1         	movff	gpio_pin_intialize@Pin_Config,gpio_pin_direction_intialize@Pin_Config
  2338   002402  C0CB  F0C2         	movff	gpio_pin_intialize@Pin_Config+1,gpio_pin_direction_intialize@Pin_Config+1
  2339   002406  ECF0  F00A         	call	_gpio_pin_direction_intialize	;wreg free
  2340   00240A  0100               	movlb	0	; () banked
  2341   00240C  6FCD               	movwf	gpio_pin_intialize@ret& (0+255),b
  2342                           
  2343                           ;MCAL_layer/GPIO/gpio.c: 143:        ret = gpio_pin_write_logic(Pin_Config,Pin_Config->l
      +                          ogic);
  2344   00240E  C0CA  F0C1         	movff	gpio_pin_intialize@Pin_Config,gpio_pin_write_logic@Pin_Config
  2345   002412  C0CB  F0C2         	movff	gpio_pin_intialize@Pin_Config+1,gpio_pin_write_logic@Pin_Config+1
  2346   002416  C0CA  FFD9         	movff	gpio_pin_intialize@Pin_Config,fsr2l
  2347   00241A  C0CB  FFDA         	movff	gpio_pin_intialize@Pin_Config+1,fsr2h
  2348   00241E  0E00               	movlw	0
  2349   002420  BEDF               	btfsc	indf2,7,c
  2350   002422  0E01               	movlw	1
  2351   002424  6FC3               	movwf	gpio_pin_write_logic@logic& (0+255),b
  2352   002426  EC85  F00B         	call	_gpio_pin_write_logic	;wreg free
  2353   00242A  0100               	movlb	0	; () banked
  2354   00242C  6FCD               	movwf	gpio_pin_intialize@ret& (0+255),b
  2355   00242E                     l4199:
  2356                           
  2357                           ; BSR set to: 0
  2358                           ;MCAL_layer/GPIO/gpio.c: 146:         return ret;
  2359   00242E  51CD               	movf	gpio_pin_intialize@ret& (0+255),w,b
  2360   002430                     
  2361                           ; BSR set to: 0
  2362   002430  0012               	return		;funcret
  2363   002432                     __end_of_gpio_pin_intialize:
  2364                           	callstack 0
  2365                           
  2366 ;; *************** function _gpio_pin_write_logic *****************
  2367 ;; Defined at:
  2368 ;;		line 75 in file "MCAL_layer/GPIO/gpio.c"
  2369 ;; Parameters:    Size  Location     Type
  2370 ;;  Pin_Config      2    0[BANK0 ] PTR const struct .
  2371 ;;		 -> lcd_4bit.lcd_pin(4), lcd_4bit(6), keypad.keyad_row_pin(4), keypad(8), 
  2372 ;;  logic           1    2[BANK0 ] enum E2968
  2373 ;; Auto vars:     Size  Location     Type
  2374 ;;  ret             1   34[COMRAM] unsigned char 
  2375 ;; Return value:  Size  Location     Type
  2376 ;;                  1    wreg      unsigned char 
  2377 ;; Registers used:
  2378 ;;		wreg, fsr2l, fsr2h, status,2, status,0, prodl, prodh
  2379 ;; Tracked objects:
  2380 ;;		On entry : 0/0
  2381 ;;		On exit  : 0/0
  2382 ;;		Unchanged: 0/0
  2383 ;; Data sizes:     COMRAM   BANK0   BANK1   BANK2   BANK3   BANK4   BANK5   BANK6   BANK7   BANK8   BANK9  BANK10  BANK1
      +1  BANK12  BANK13  BANK14  BANK15
  2384 ;;      Params:         0       3       0       0       0       0       0       0       0       0       0       0       
      +0       0       0       0       0
  2385 ;;      Locals:         1       0       0       0       0       0       0       0       0       0       0       0       
      +0       0       0       0       0
  2386 ;;      Temps:          0       6       0       0       0       0       0       0       0       0       0       0       
      +0       0       0       0       0
  2387 ;;      Totals:         1       9       0       0       0       0       0       0       0       0       0       0       
      +0       0       0       0       0
  2388 ;;Total ram usage:       10 bytes
  2389 ;; Hardware stack levels used: 1
  2390 ;; Hardware stack levels required when called: 6
  2391 ;; This function calls:
  2392 ;;		Nothing
  2393 ;; This function is called by:
  2394 ;;		_main
  2395 ;;		_send_4_bit_command
  2396 ;;		_send_4_bit_char_data
  2397 ;;		_send_4_bit_enable
  2398 ;;		_send_4_bit_help
  2399 ;;		_gpio_pin_intialize
  2400 ;;		_get_value
  2401 ;;		_send_8_bit_command
  2402 ;;		_send_8_bit_char_data
  2403 ;;		_send_8_bit_enable
  2404 ;; This function uses a non-reentrant model
  2405 ;;
  2406                           
  2407                           	psect	text11
  2408   00170A                     __ptext11:
  2409                           	callstack 0
  2410   00170A                     _gpio_pin_write_logic:
  2411                           	callstack 21
  2412   00170A                     
  2413                           ;MCAL_layer/GPIO/gpio.c: 76:      Std_ReturnType ret = (Std_ReturnType)0x01;
  2414   00170A  0E01               	movlw	1
  2415   00170C  6E23               	movwf	gpio_pin_write_logic@ret^0,c
  2416   00170E                     
  2417                           ;MCAL_layer/GPIO/gpio.c: 77:     if(((void*)0) == Pin_Config || Pin_Config->pin > 8)
  2418   00170E  0100               	movlb	0	; () banked
  2419   001710  51C1               	movf	gpio_pin_write_logic@Pin_Config& (0+255),w,b
  2420   001712  11C2               	iorwf	(gpio_pin_write_logic@Pin_Config+1)& (0+255),w,b
  2421   001714  B4D8               	btfsc	status,2,c
  2422   001716  EF8F  F00B         	goto	u3371
  2423   00171A  EF91  F00B         	goto	u3370
  2424   00171E                     u3371:
  2425   00171E  EFA2  F00B         	goto	l4079
  2426   001722                     u3370:
  2427   001722                     
  2428                           ; BSR set to: 0
  2429   001722  C0C1  FFD9         	movff	gpio_pin_write_logic@Pin_Config,fsr2l
  2430   001726  C0C2  FFDA         	movff	gpio_pin_write_logic@Pin_Config+1,fsr2h
  2431   00172A  30DF               	rrcf	223,w,c
  2432   00172C  32E8               	rrcf	wreg,f,c
  2433   00172E  32E8               	rrcf	wreg,f,c
  2434   001730  0B07               	andlw	7
  2435   001732  6FC4               	movwf	??_gpio_pin_write_logic& (0+255),b
  2436   001734  0E08               	movlw	8
  2437   001736  65C4               	cpfsgt	??_gpio_pin_write_logic& (0+255),b
  2438   001738  EFA0  F00B         	goto	u3381
  2439   00173C  EFA2  F00B         	goto	u3380
  2440   001740                     u3381:
  2441   001740  EFA6  F00B         	goto	l4081
  2442   001744                     u3380:
  2443   001744                     l4079:
  2444                           
  2445                           ; BSR set to: 0
  2446                           ;MCAL_layer/GPIO/gpio.c: 78:         ret = (Std_ReturnType)0x00;
  2447   001744  0E00               	movlw	0
  2448   001746  6E23               	movwf	gpio_pin_write_logic@ret^0,c
  2449   001748  EF15  F00C         	goto	l417
  2450   00174C                     l4081:
  2451                           
  2452                           ; BSR set to: 0
  2453                           ;MCAL_layer/GPIO/gpio.c: 80:     {;MCAL_layer/GPIO/gpio.c: 81:         if(logic == HIGH)
  2454   00174C  05C3               	decf	gpio_pin_write_logic@logic& (0+255),w,b
  2455   00174E  A4D8               	btfss	status,2,c
  2456   001750  EFAC  F00B         	goto	u3391
  2457   001754  EFAE  F00B         	goto	u3390
  2458   001758                     u3391:
  2459   001758  EFDD  F00B         	goto	l4085
  2460   00175C                     u3390:
  2461   00175C                     
  2462                           ; BSR set to: 0
  2463                           ;MCAL_layer/GPIO/gpio.c: 82:             (*lat_reg[Pin_Config->port] |= ((uint8)1 << Pin
      +                          _Config->pin));
  2464   00175C  C0C1  FFD9         	movff	gpio_pin_write_logic@Pin_Config,fsr2l
  2465   001760  C0C2  FFDA         	movff	gpio_pin_write_logic@Pin_Config+1,fsr2h
  2466   001764  30DF               	rrcf	223,w,c
  2467   001766  32E8               	rrcf	wreg,f,c
  2468   001768  32E8               	rrcf	wreg,f,c
  2469   00176A  0B07               	andlw	7
  2470   00176C  6FC4               	movwf	??_gpio_pin_write_logic& (0+255),b
  2471   00176E  0E01               	movlw	1
  2472   001770  6FC5               	movwf	(??_gpio_pin_write_logic+1)& (0+255),b
  2473   001772  2BC4               	incf	??_gpio_pin_write_logic& (0+255),f,b
  2474   001774  EFBE  F00B         	goto	u3404
  2475   001778                     u3405:
  2476   001778  90D8               	bcf	status,0,c
  2477   00177A  37C5               	rlcf	(??_gpio_pin_write_logic+1)& (0+255),f,b
  2478   00177C                     u3404:
  2479   00177C  2FC4               	decfsz	??_gpio_pin_write_logic& (0+255),f,b
  2480   00177E  EFBC  F00B         	goto	u3405
  2481   001782  C0C1  FFD9         	movff	gpio_pin_write_logic@Pin_Config,fsr2l
  2482   001786  C0C2  FFDA         	movff	gpio_pin_write_logic@Pin_Config+1,fsr2h
  2483   00178A  50DF               	movf	223,w,c
  2484   00178C  0B07               	andlw	7
  2485   00178E  0100               	movlb	0	; () banked
  2486   001790  6FC6               	movwf	(??_gpio_pin_write_logic+2)& (0+255),b
  2487   001792  51C6               	movf	(??_gpio_pin_write_logic+2)& (0+255),w,b
  2488   001794  0D02               	mullw	2
  2489   001796  0E42               	movlw	low _lat_reg
  2490   001798  24F3               	addwf	243,w,c
  2491   00179A  6ED9               	movwf	fsr2l,c
  2492   00179C  0E00               	movlw	high _lat_reg
  2493   00179E  20F4               	addwfc	prodh,w,c
  2494   0017A0  6EDA               	movwf	fsr2h,c
  2495   0017A2  CFDE F0C7          	movff	postinc2,??_gpio_pin_write_logic+3
  2496   0017A6  CFDD F0C8          	movff	postdec2,??_gpio_pin_write_logic+4
  2497   0017AA  C0C7  FFD9         	movff	??_gpio_pin_write_logic+3,fsr2l
  2498   0017AE  C0C8  FFDA         	movff	??_gpio_pin_write_logic+4,fsr2h
  2499   0017B2  51C5               	movf	(??_gpio_pin_write_logic+1)& (0+255),w,b
  2500   0017B4  12DF               	iorwf	indf2,f,c
  2501   0017B6  EF15  F00C         	goto	l417
  2502   0017BA                     l4085:
  2503                           
  2504                           ; BSR set to: 0
  2505   0017BA  C0C1  FFD9         	movff	gpio_pin_write_logic@Pin_Config,fsr2l
  2506   0017BE  C0C2  FFDA         	movff	gpio_pin_write_logic@Pin_Config+1,fsr2h
  2507   0017C2  30DF               	rrcf	223,w,c
  2508   0017C4  32E8               	rrcf	wreg,f,c
  2509   0017C6  32E8               	rrcf	wreg,f,c
  2510   0017C8  0B07               	andlw	7
  2511   0017CA  6FC4               	movwf	??_gpio_pin_write_logic& (0+255),b
  2512   0017CC  0E01               	movlw	1
  2513   0017CE  6FC5               	movwf	(??_gpio_pin_write_logic+1)& (0+255),b
  2514   0017D0  2BC4               	incf	??_gpio_pin_write_logic& (0+255),f,b
  2515   0017D2  EFED  F00B         	goto	u3414
  2516   0017D6                     u3415:
  2517   0017D6  90D8               	bcf	status,0,c
  2518   0017D8  37C5               	rlcf	(??_gpio_pin_write_logic+1)& (0+255),f,b
  2519   0017DA                     u3414:
  2520   0017DA  2FC4               	decfsz	??_gpio_pin_write_logic& (0+255),f,b
  2521   0017DC  EFEB  F00B         	goto	u3415
  2522   0017E0  0100               	movlb	0	; () banked
  2523   0017E2  51C5               	movf	(??_gpio_pin_write_logic+1)& (0+255),w,b
  2524   0017E4  0AFF               	xorlw	255
  2525   0017E6  6FC6               	movwf	(??_gpio_pin_write_logic+2)& (0+255),b
  2526   0017E8  C0C1  FFD9         	movff	gpio_pin_write_logic@Pin_Config,fsr2l
  2527   0017EC  C0C2  FFDA         	movff	gpio_pin_write_logic@Pin_Config+1,fsr2h
  2528   0017F0  50DF               	movf	223,w,c
  2529   0017F2  0B07               	andlw	7
  2530   0017F4  6FC7               	movwf	(??_gpio_pin_write_logic+3)& (0+255),b
  2531   0017F6  51C7               	movf	(??_gpio_pin_write_logic+3)& (0+255),w,b
  2532   0017F8  0D02               	mullw	2
  2533   0017FA  0E42               	movlw	low _lat_reg
  2534   0017FC  24F3               	addwf	243,w,c
  2535   0017FE  6ED9               	movwf	fsr2l,c
  2536   001800  0E00               	movlw	high _lat_reg
  2537   001802  20F4               	addwfc	prodh,w,c
  2538   001804  6EDA               	movwf	fsr2h,c
  2539   001806  CFDE F0C8          	movff	postinc2,??_gpio_pin_write_logic+4
  2540   00180A  CFDD F0C9          	movff	postdec2,??_gpio_pin_write_logic+5
  2541   00180E  C0C8  FFD9         	movff	??_gpio_pin_write_logic+4,fsr2l
  2542   001812  C0C9  FFDA         	movff	??_gpio_pin_write_logic+5,fsr2h
  2543   001816  51C6               	movf	(??_gpio_pin_write_logic+2)& (0+255),w,b
  2544   001818  16DF               	andwf	indf2,f,c
  2545   00181A  50DF               	movf	indf2,w,c
  2546   00181C  B4D8               	btfsc	status,2,c
  2547   00181E  EF13  F00C         	goto	u3421
  2548   001822  EF15  F00C         	goto	u3420
  2549   001826                     u3421:
  2550   001826  EFA2  F00B         	goto	l4079
  2551   00182A                     u3420:
  2552   00182A                     l417:
  2553                           
  2554                           ; BSR set to: 0
  2555                           ;MCAL_layer/GPIO/gpio.c: 87:         return ret;
  2556   00182A  5023               	movf	gpio_pin_write_logic@ret^0,w,c
  2557   00182C                     
  2558                           ; BSR set to: 0
  2559   00182C  0012               	return		;funcret
  2560   00182E                     __end_of_gpio_pin_write_logic:
  2561                           	callstack 0
  2562                           
  2563 ;; *************** function _Interrupt_RBX_intialize *****************
  2564 ;; Defined at:
  2565 ;;		line 315 in file "MCAL_layer/Interrupt/interrupt_external.c"
  2566 ;; Parameters:    Size  Location     Type
  2567 ;;  int_obj         2    8[BANK0 ] PTR const struct .
  2568 ;;		 -> RB_obj_1(6), 
  2569 ;; Auto vars:     Size  Location     Type
  2570 ;;  ret             1   12[BANK0 ] unsigned char 
  2571 ;; Return value:  Size  Location     Type
  2572 ;;                  1    wreg      unsigned char 
  2573 ;; Registers used:
  2574 ;;		wreg, fsr2l, fsr2h, status,2, status,0, prodl, prodh, cstack
  2575 ;; Tracked objects:
  2576 ;;		On entry : 0/0
  2577 ;;		On exit  : 0/0
  2578 ;;		Unchanged: 0/0
  2579 ;; Data sizes:     COMRAM   BANK0   BANK1   BANK2   BANK3   BANK4   BANK5   BANK6   BANK7   BANK8   BANK9  BANK10  BANK1
      +1  BANK12  BANK13  BANK14  BANK15
  2580 ;;      Params:         0       2       0       0       0       0       0       0       0       0       0       0       
      +0       0       0       0       0
  2581 ;;      Locals:         0       1       0       0       0       0       0       0       0       0       0       0       
      +0       0       0       0       0
  2582 ;;      Temps:          0       2       0       0       0       0       0       0       0       0       0       0       
      +0       0       0       0       0
  2583 ;;      Totals:         0       5       0       0       0       0       0       0       0       0       0       0       
      +0       0       0       0       0
  2584 ;;Total ram usage:        5 bytes
  2585 ;; Hardware stack levels used: 1
  2586 ;; Hardware stack levels required when called: 7
  2587 ;; This function calls:
  2588 ;;		_gpio_pin_direction_intialize
  2589 ;; This function is called by:
  2590 ;;		_application_initialize
  2591 ;; This function uses a non-reentrant model
  2592 ;;
  2593                           
  2594                           	psect	text12
  2595   00122A                     __ptext12:
  2596                           	callstack 0
  2597   00122A                     _Interrupt_RBX_intialize:
  2598                           	callstack 22
  2599   00122A                     
  2600                           ;MCAL_layer/Interrupt/interrupt_external.c: 317:     if(((void*)0) == int_obj)
  2601   00122A  0100               	movlb	0	; () banked
  2602   00122C  51C9               	movf	Interrupt_RBX_intialize@int_obj& (0+255),w,b
  2603   00122E  11CA               	iorwf	(Interrupt_RBX_intialize@int_obj+1)& (0+255),w,b
  2604   001230  A4D8               	btfss	status,2,c
  2605   001232  EF1D  F009         	goto	u3771
  2606   001236  EF1F  F009         	goto	u3770
  2607   00123A                     u3771:
  2608   00123A  EF21  F009         	goto	l655
  2609   00123E                     u3770:
  2610   00123E                     
  2611                           ; BSR set to: 0
  2612   00123E  EFB4  F009         	goto	l664
  2613   001242                     l655:
  2614                           
  2615                           ; BSR set to: 0
  2616                           ;MCAL_layer/Interrupt/interrupt_external.c: 320:          (INTCONbits.RBIE = 0);
  2617   001242  96F2               	bcf	242,3,c	;volatile
  2618                           
  2619                           ;MCAL_layer/Interrupt/interrupt_external.c: 321:          (INTCONbits.RBIF = 0);
  2620   001244  90F2               	bcf	242,0,c	;volatile
  2621   001246                     
  2622                           ; BSR set to: 0
  2623                           ;MCAL_layer/Interrupt/interrupt_external.c: 322:          ret = gpio_pin_direction_intia
      +                          lize(&(int_obj->interrupt_pin));
  2624   001246  0E05               	movlw	5
  2625   001248  25C9               	addwf	Interrupt_RBX_intialize@int_obj& (0+255),w,b
  2626   00124A  6FC1               	movwf	gpio_pin_direction_intialize@Pin_Config& (0+255),b
  2627   00124C  0E00               	movlw	0
  2628   00124E  21CA               	addwfc	(Interrupt_RBX_intialize@int_obj+1)& (0+255),w,b
  2629   001250  6FC2               	movwf	(gpio_pin_direction_intialize@Pin_Config+1)& (0+255),b
  2630   001252  ECF0  F00A         	call	_gpio_pin_direction_intialize	;wreg free
  2631   001256  0100               	movlb	0	; () banked
  2632   001258  6FCD               	movwf	Interrupt_RBX_intialize@ret& (0+255),b
  2633                           
  2634                           ;MCAL_layer/Interrupt/interrupt_external.c: 324:    ret = gpio_pin_direction_intialize(&
      +                          (int_obj->interrupt_pin));
  2635   00125A  0E05               	movlw	5
  2636   00125C  25C9               	addwf	Interrupt_RBX_intialize@int_obj& (0+255),w,b
  2637   00125E  6FC1               	movwf	gpio_pin_direction_intialize@Pin_Config& (0+255),b
  2638   001260  0E00               	movlw	0
  2639   001262  21CA               	addwfc	(Interrupt_RBX_intialize@int_obj+1)& (0+255),w,b
  2640   001264  6FC2               	movwf	(gpio_pin_direction_intialize@Pin_Config+1)& (0+255),b
  2641   001266  ECF0  F00A         	call	_gpio_pin_direction_intialize	;wreg free
  2642   00126A  0100               	movlb	0	; () banked
  2643   00126C  6FCD               	movwf	Interrupt_RBX_intialize@ret& (0+255),b
  2644                           
  2645                           ;MCAL_layer/Interrupt/interrupt_external.c: 326:         switch(int_obj->interrupt_pin.p
      +                          in){
  2646   00126E  EF8B  F009         	goto	l4483
  2647   001272                     l4465:
  2648                           
  2649                           ; BSR set to: 0
  2650                           ;MCAL_layer/Interrupt/interrupt_external.c: 328:                 RB4_InterruptHandler_HI
      +                          GH = int_obj->EXT_InterruptHandler_HIGH;
  2651   001272  C0C9  FFD9         	movff	Interrupt_RBX_intialize@int_obj,fsr2l
  2652   001276  C0CA  FFDA         	movff	Interrupt_RBX_intialize@int_obj+1,fsr2h
  2653   00127A  CFDE F034          	movff	postinc2,_RB4_InterruptHandler_HIGH
  2654   00127E  CFDD F035          	movff	postdec2,_RB4_InterruptHandler_HIGH+1
  2655   001282                     
  2656                           ; BSR set to: 0
  2657                           ;MCAL_layer/Interrupt/interrupt_external.c: 329:                 RB4_InterruptHandler_LO
      +                          W = int_obj->EXT_InterruptHandler_LOW;
  2658   001282  EE20 F002          	lfsr	2,2
  2659   001286  51C9               	movf	Interrupt_RBX_intialize@int_obj& (0+255),w,b
  2660   001288  26D9               	addwf	fsr2l,f,c
  2661   00128A  51CA               	movf	(Interrupt_RBX_intialize@int_obj+1)& (0+255),w,b
  2662   00128C  22DA               	addwfc	fsr2h,f,c
  2663   00128E  CFDE F036          	movff	postinc2,_RB4_InterruptHandler_LOW
  2664   001292  CFDD F037          	movff	postdec2,_RB4_InterruptHandler_LOW+1
  2665                           
  2666                           ;MCAL_layer/Interrupt/interrupt_external.c: 330:                 break;
  2667   001296  EFB1  F009         	goto	l659
  2668   00129A                     l4469:
  2669                           
  2670                           ; BSR set to: 0
  2671                           ;MCAL_layer/Interrupt/interrupt_external.c: 332:                 RB5_InterruptHandler_HI
      +                          GH = int_obj->EXT_InterruptHandler_HIGH;
  2672   00129A  C0C9  FFD9         	movff	Interrupt_RBX_intialize@int_obj,fsr2l
  2673   00129E  C0CA  FFDA         	movff	Interrupt_RBX_intialize@int_obj+1,fsr2h
  2674   0012A2  CFDE F030          	movff	postinc2,_RB5_InterruptHandler_HIGH
  2675   0012A6  CFDD F031          	movff	postdec2,_RB5_InterruptHandler_HIGH+1
  2676   0012AA                     
  2677                           ; BSR set to: 0
  2678                           ;MCAL_layer/Interrupt/interrupt_external.c: 333:                 RB5_InterruptHandler_LO
      +                          W = int_obj->EXT_InterruptHandler_LOW;
  2679   0012AA  EE20 F002          	lfsr	2,2
  2680   0012AE  51C9               	movf	Interrupt_RBX_intialize@int_obj& (0+255),w,b
  2681   0012B0  26D9               	addwf	fsr2l,f,c
  2682   0012B2  51CA               	movf	(Interrupt_RBX_intialize@int_obj+1)& (0+255),w,b
  2683   0012B4  22DA               	addwfc	fsr2h,f,c
  2684   0012B6  CFDE F032          	movff	postinc2,_RB5_InterruptHandler_LOW
  2685   0012BA  CFDD F033          	movff	postdec2,_RB5_InterruptHandler_LOW+1
  2686                           
  2687                           ;MCAL_layer/Interrupt/interrupt_external.c: 334:                 break;
  2688   0012BE  EFB1  F009         	goto	l659
  2689   0012C2                     l4473:
  2690                           
  2691                           ; BSR set to: 0
  2692                           ;MCAL_layer/Interrupt/interrupt_external.c: 336:                 RB6_InterruptHandler_HI
      +                          GH = int_obj->EXT_InterruptHandler_HIGH;
  2693   0012C2  C0C9  FFD9         	movff	Interrupt_RBX_intialize@int_obj,fsr2l
  2694   0012C6  C0CA  FFDA         	movff	Interrupt_RBX_intialize@int_obj+1,fsr2h
  2695   0012CA  CFDE F02C          	movff	postinc2,_RB6_InterruptHandler_HIGH
  2696   0012CE  CFDD F02D          	movff	postdec2,_RB6_InterruptHandler_HIGH+1
  2697   0012D2                     
  2698                           ; BSR set to: 0
  2699                           ;MCAL_layer/Interrupt/interrupt_external.c: 337:                 RB6_InterruptHandler_LO
      +                          W = int_obj->EXT_InterruptHandler_LOW;
  2700   0012D2  EE20 F002          	lfsr	2,2
  2701   0012D6  51C9               	movf	Interrupt_RBX_intialize@int_obj& (0+255),w,b
  2702   0012D8  26D9               	addwf	fsr2l,f,c
  2703   0012DA  51CA               	movf	(Interrupt_RBX_intialize@int_obj+1)& (0+255),w,b
  2704   0012DC  22DA               	addwfc	fsr2h,f,c
  2705   0012DE  CFDE F02E          	movff	postinc2,_RB6_InterruptHandler_LOW
  2706   0012E2  CFDD F02F          	movff	postdec2,_RB6_InterruptHandler_LOW+1
  2707                           
  2708                           ;MCAL_layer/Interrupt/interrupt_external.c: 338:                 break;
  2709   0012E6  EFB1  F009         	goto	l659
  2710   0012EA                     l4477:
  2711                           
  2712                           ; BSR set to: 0
  2713                           ;MCAL_layer/Interrupt/interrupt_external.c: 340:                 RB7_InterruptHandler_HI
      +                          GH = int_obj->EXT_InterruptHandler_HIGH;
  2714   0012EA  C0C9  FFD9         	movff	Interrupt_RBX_intialize@int_obj,fsr2l
  2715   0012EE  C0CA  FFDA         	movff	Interrupt_RBX_intialize@int_obj+1,fsr2h
  2716   0012F2  CFDE F028          	movff	postinc2,_RB7_InterruptHandler_HIGH
  2717   0012F6  CFDD F029          	movff	postdec2,_RB7_InterruptHandler_HIGH+1
  2718   0012FA                     
  2719                           ; BSR set to: 0
  2720                           ;MCAL_layer/Interrupt/interrupt_external.c: 341:                 RB7_InterruptHandler_LO
      +                          W = int_obj->EXT_InterruptHandler_LOW;
  2721   0012FA  EE20 F002          	lfsr	2,2
  2722   0012FE  51C9               	movf	Interrupt_RBX_intialize@int_obj& (0+255),w,b
  2723   001300  26D9               	addwf	fsr2l,f,c
  2724   001302  51CA               	movf	(Interrupt_RBX_intialize@int_obj+1)& (0+255),w,b
  2725   001304  22DA               	addwfc	fsr2h,f,c
  2726   001306  CFDE F02A          	movff	postinc2,_RB7_InterruptHandler_LOW
  2727   00130A  CFDD F02B          	movff	postdec2,_RB7_InterruptHandler_LOW+1
  2728                           
  2729                           ;MCAL_layer/Interrupt/interrupt_external.c: 342:                 break;
  2730   00130E  EFB1  F009         	goto	l659
  2731   001312                     l4481:
  2732                           
  2733                           ; BSR set to: 0
  2734                           ;MCAL_layer/Interrupt/interrupt_external.c: 345:         }
  2735   001312  EFB1  F009         	goto	l659
  2736   001316                     l4483:
  2737                           
  2738                           ; BSR set to: 0
  2739   001316  EE20 F005          	lfsr	2,5
  2740   00131A  51C9               	movf	Interrupt_RBX_intialize@int_obj& (0+255),w,b
  2741   00131C  26D9               	addwf	fsr2l,f,c
  2742   00131E  51CA               	movf	(Interrupt_RBX_intialize@int_obj+1)& (0+255),w,b
  2743   001320  22DA               	addwfc	fsr2h,f,c
  2744   001322  30DF               	rrcf	223,w,c
  2745   001324  32E8               	rrcf	wreg,f,c
  2746   001326  32E8               	rrcf	wreg,f,c
  2747   001328  0B07               	andlw	7
  2748   00132A  6FCB               	movwf	??_Interrupt_RBX_intialize& (0+255),b
  2749   00132C  6BCC               	clrf	(??_Interrupt_RBX_intialize+1)& (0+255),b
  2750                           
  2751                           ; Switch on 2 bytes has been partitioned into a top level switch of size 1, and 1 sub-sw
      +                          itches
  2752                           ; Switch size 1, requested type "simple"
  2753                           ; Number of cases is 1, Range of values is 0 to 0
  2754                           ; switch strategies available:
  2755                           ; Name         Instructions Cycles
  2756                           ; simple_byte            4     3 (average)
  2757                           ;	Chosen strategy is simple_byte
  2758   00132E  51CC               	movf	(??_Interrupt_RBX_intialize+1)& (0+255),w,b
  2759   001330  0A00               	xorlw	0	; case 0
  2760   001332  B4D8               	btfsc	status,2,c
  2761   001334  EF9E  F009         	goto	l5121
  2762   001338  EF89  F009         	goto	l4481
  2763   00133C                     l5121:
  2764                           
  2765                           ; BSR set to: 0
  2766                           ; Switch size 1, requested type "simple"
  2767                           ; Number of cases is 4, Range of values is 4 to 7
  2768                           ; switch strategies available:
  2769                           ; Name         Instructions Cycles
  2770                           ; simple_byte           13     7 (average)
  2771                           ;	Chosen strategy is simple_byte
  2772   00133C  51CB               	movf	??_Interrupt_RBX_intialize& (0+255),w,b
  2773   00133E  0A04               	xorlw	4	; case 4
  2774   001340  B4D8               	btfsc	status,2,c
  2775   001342  EF39  F009         	goto	l4465
  2776   001346  0A01               	xorlw	1	; case 5
  2777   001348  B4D8               	btfsc	status,2,c
  2778   00134A  EF4D  F009         	goto	l4469
  2779   00134E  0A03               	xorlw	3	; case 6
  2780   001350  B4D8               	btfsc	status,2,c
  2781   001352  EF61  F009         	goto	l4473
  2782   001356  0A01               	xorlw	1	; case 7
  2783   001358  B4D8               	btfsc	status,2,c
  2784   00135A  EF75  F009         	goto	l4477
  2785   00135E  EF89  F009         	goto	l4481
  2786   001362                     l659:
  2787                           
  2788                           ; BSR set to: 0
  2789                           ;MCAL_layer/Interrupt/interrupt_external.c: 362:                 {;MCAL_layer/Interrupt/
      +                          interrupt_external.c: 363:                     (INTCONbits.PEIE = 1);
  2790   001362  8CF2               	bsf	242,6,c	;volatile
  2791                           
  2792                           ;MCAL_layer/Interrupt/interrupt_external.c: 364:                     (INTCONbits.GIE = 1
      +                          );
  2793   001364  8EF2               	bsf	242,7,c	;volatile
  2794                           
  2795                           ;MCAL_layer/Interrupt/interrupt_external.c: 365:                 };MCAL_layer/Interrupt/
      +                          interrupt_external.c: 368:         (INTCONbits.RBIE = 1);
  2796   001366  86F2               	bsf	242,3,c	;volatile
  2797   001368                     l664:
  2798                           
  2799                           ; BSR set to: 0
  2800   001368  0012               	return		;funcret
  2801   00136A                     __end_of_Interrupt_RBX_intialize:
  2802                           	callstack 0
  2803                           
  2804 ;; *************** function _Interrupt_INTX_intialize *****************
  2805 ;; Defined at:
  2806 ;;		line 40 in file "MCAL_layer/Interrupt/interrupt_external.c"
  2807 ;; Parameters:    Size  Location     Type
  2808 ;;  int_obj         2   10[BANK0 ] PTR const struct .
  2809 ;;		 -> INT2_obj(6), INT1_obj(6), INT0_obj(6), 
  2810 ;; Auto vars:     Size  Location     Type
  2811 ;;  ret             1    0        unsigned char 
  2812 ;; Return value:  Size  Location     Type
  2813 ;;                  1    wreg      unsigned char 
  2814 ;; Registers used:
  2815 ;;		wreg, fsr2l, fsr2h, status,2, status,0, prodl, prodh, cstack
  2816 ;; Tracked objects:
  2817 ;;		On entry : 0/0
  2818 ;;		On exit  : 0/0
  2819 ;;		Unchanged: 0/0
  2820 ;; Data sizes:     COMRAM   BANK0   BANK1   BANK2   BANK3   BANK4   BANK5   BANK6   BANK7   BANK8   BANK9  BANK10  BANK1
      +1  BANK12  BANK13  BANK14  BANK15
  2821 ;;      Params:         0       2       0       0       0       0       0       0       0       0       0       0       
      +0       0       0       0       0
  2822 ;;      Locals:         0       0       0       0       0       0       0       0       0       0       0       0       
      +0       0       0       0       0
  2823 ;;      Temps:          0       0       0       0       0       0       0       0       0       0       0       0       
      +0       0       0       0       0
  2824 ;;      Totals:         0       2       0       0       0       0       0       0       0       0       0       0       
      +0       0       0       0       0
  2825 ;;Total ram usage:        2 bytes
  2826 ;; Hardware stack levels used: 1
  2827 ;; Hardware stack levels required when called: 8
  2828 ;; This function calls:
  2829 ;;		_INTX_SET_HUNDLER_INTERRUPT
  2830 ;;		_Interrupt_INTx_Clear_Flag
  2831 ;;		_Interrupt_INTx_Disable
  2832 ;;		_Interrupt_INTx_Edge_Init
  2833 ;;		_Interrupt_INTx_Enable
  2834 ;;		_Interrupt_INTx_Pin_Init
  2835 ;; This function is called by:
  2836 ;;		_application_initialize
  2837 ;; This function uses a non-reentrant model
  2838 ;;
  2839                           
  2840                           	psect	text13
  2841   0025D4                     __ptext13:
  2842                           	callstack 0
  2843   0025D4                     _Interrupt_INTX_intialize:
  2844                           	callstack 21
  2845   0025D4                     
  2846                           ;MCAL_layer/Interrupt/interrupt_external.c: 42:     if(((void*)0) == int_obj)
  2847   0025D4  0100               	movlb	0	; () banked
  2848   0025D6  51CB               	movf	Interrupt_INTX_intialize@int_obj& (0+255),w,b
  2849   0025D8  11CC               	iorwf	(Interrupt_INTX_intialize@int_obj+1)& (0+255),w,b
  2850   0025DA  A4D8               	btfss	status,2,c
  2851   0025DC  EFF2  F012         	goto	u3761
  2852   0025E0  EFF4  F012         	goto	u3760
  2853   0025E4                     u3761:
  2854   0025E4  EFF6  F012         	goto	l4445
  2855   0025E8                     u3760:
  2856   0025E8                     
  2857                           ; BSR set to: 0
  2858   0025E8  EF1A  F013         	goto	l533
  2859   0025EC                     l4445:
  2860                           
  2861                           ; BSR set to: 0
  2862                           ;MCAL_layer/Interrupt/interrupt_external.c: 45:       Interrupt_INTx_Disable( int_obj);
  2863   0025EC  C0CB  F0C1         	movff	Interrupt_INTX_intialize@int_obj,Interrupt_INTx_Disable@int_obj
  2864   0025F0  C0CC  F0C2         	movff	Interrupt_INTX_intialize@int_obj+1,Interrupt_INTx_Disable@int_obj+1
  2865   0025F4  EC4F  F012         	call	_Interrupt_INTx_Disable	;wreg free
  2866                           
  2867                           ;MCAL_layer/Interrupt/interrupt_external.c: 46:        Interrupt_INTx_Clear_Flag(int_obj
      +                          );
  2868   0025F8  C0CB  F0C1         	movff	Interrupt_INTX_intialize@int_obj,Interrupt_INTx_Clear_Flag@int_obj
  2869   0025FC  C0CC  F0C2         	movff	Interrupt_INTX_intialize@int_obj+1,Interrupt_INTx_Clear_Flag@int_obj+1
  2870   002600  EC84  F012         	call	_Interrupt_INTx_Clear_Flag	;wreg free
  2871   002604                     
  2872                           ;MCAL_layer/Interrupt/interrupt_external.c: 47:         Interrupt_INTx_Pin_Init( int_obj
      +                          );
  2873   002604  C0CB  F0C9         	movff	Interrupt_INTX_intialize@int_obj,Interrupt_INTx_Pin_Init@int_obj
  2874   002608  C0CC  F0CA         	movff	Interrupt_INTX_intialize@int_obj+1,Interrupt_INTx_Pin_Init@int_obj+1
  2875   00260C  EC1A  F014         	call	_Interrupt_INTx_Pin_Init	;wreg free
  2876   002610                     
  2877                           ;MCAL_layer/Interrupt/interrupt_external.c: 48:         Interrupt_INTx_Edge_Init(int_obj
      +                          );
  2878   002610  C0CB  F0C1         	movff	Interrupt_INTX_intialize@int_obj,Interrupt_INTx_Edge_Init@int_obj
  2879   002614  C0CC  F0C2         	movff	Interrupt_INTX_intialize@int_obj+1,Interrupt_INTx_Edge_Init@int_obj+1
  2880   002618  EC17  F00C         	call	_Interrupt_INTx_Edge_Init	;wreg free
  2881   00261C                     
  2882                           ;MCAL_layer/Interrupt/interrupt_external.c: 49:         INTX_SET_HUNDLER_INTERRUPT(int_o
      +                          bj);
  2883   00261C  C0CB  F0C3         	movff	Interrupt_INTX_intialize@int_obj,INTX_SET_HUNDLER_INTERRUPT@int_obj
  2884   002620  C0CC  F0C4         	movff	Interrupt_INTX_intialize@int_obj+1,INTX_SET_HUNDLER_INTERRUPT@int_obj+1
  2885   002624  EC05  F00F         	call	_INTX_SET_HUNDLER_INTERRUPT	;wreg free
  2886   002628                     
  2887                           ;MCAL_layer/Interrupt/interrupt_external.c: 50:         Interrupt_INTx_Enable(int_obj);
  2888   002628  C0CB  F0C1         	movff	Interrupt_INTX_intialize@int_obj,Interrupt_INTx_Enable@int_obj
  2889   00262C  C0CC  F0C2         	movff	Interrupt_INTX_intialize@int_obj+1,Interrupt_INTx_Enable@int_obj+1
  2890   002630  EC6C  F011         	call	_Interrupt_INTx_Enable	;wreg free
  2891   002634                     l533:
  2892   002634  0012               	return		;funcret
  2893   002636                     __end_of_Interrupt_INTX_intialize:
  2894                           	callstack 0
  2895                           
  2896 ;; *************** function _Interrupt_INTx_Pin_Init *****************
  2897 ;; Defined at:
  2898 ;;		line 213 in file "MCAL_layer/Interrupt/interrupt_external.c"
  2899 ;; Parameters:    Size  Location     Type
  2900 ;;  int_obj         2    8[BANK0 ] PTR const struct .
  2901 ;;		 -> INT2_obj(6), INT1_obj(6), INT0_obj(6), 
  2902 ;; Auto vars:     Size  Location     Type
  2903 ;;  ret             1    0        unsigned char 
  2904 ;; Return value:  Size  Location     Type
  2905 ;;                  1    wreg      unsigned char 
  2906 ;; Registers used:
  2907 ;;		wreg, fsr2l, fsr2h, status,2, status,0, prodl, prodh, cstack
  2908 ;; Tracked objects:
  2909 ;;		On entry : 0/0
  2910 ;;		On exit  : 0/0
  2911 ;;		Unchanged: 0/0
  2912 ;; Data sizes:     COMRAM   BANK0   BANK1   BANK2   BANK3   BANK4   BANK5   BANK6   BANK7   BANK8   BANK9  BANK10  BANK1
      +1  BANK12  BANK13  BANK14  BANK15
  2913 ;;      Params:         0       2       0       0       0       0       0       0       0       0       0       0       
      +0       0       0       0       0
  2914 ;;      Locals:         0       0       0       0       0       0       0       0       0       0       0       0       
      +0       0       0       0       0
  2915 ;;      Temps:          0       0       0       0       0       0       0       0       0       0       0       0       
      +0       0       0       0       0
  2916 ;;      Totals:         0       2       0       0       0       0       0       0       0       0       0       0       
      +0       0       0       0       0
  2917 ;;Total ram usage:        2 bytes
  2918 ;; Hardware stack levels used: 1
  2919 ;; Hardware stack levels required when called: 7
  2920 ;; This function calls:
  2921 ;;		_gpio_pin_direction_intialize
  2922 ;; This function is called by:
  2923 ;;		_Interrupt_INTX_intialize
  2924 ;; This function uses a non-reentrant model
  2925 ;;
  2926                           
  2927                           	psect	text14
  2928   002834                     __ptext14:
  2929                           	callstack 0
  2930   002834                     _Interrupt_INTx_Pin_Init:
  2931                           	callstack 21
  2932   002834                     
  2933                           ;MCAL_layer/Interrupt/interrupt_external.c: 215:     if(((void*)0) == int_obj){
  2934   002834  0100               	movlb	0	; () banked
  2935   002836  51C9               	movf	Interrupt_INTx_Pin_Init@int_obj& (0+255),w,b
  2936   002838  11CA               	iorwf	(Interrupt_INTx_Pin_Init@int_obj+1)& (0+255),w,b
  2937   00283A  A4D8               	btfss	status,2,c
  2938   00283C  EF22  F014         	goto	u3631
  2939   002840  EF24  F014         	goto	u3630
  2940   002844                     u3631:
  2941   002844  EF26  F014         	goto	l4283
  2942   002848                     u3630:
  2943   002848                     
  2944                           ; BSR set to: 0
  2945                           ;MCAL_layer/Interrupt/interrupt_external.c: 217:     }
  2946   002848  EF2E  F014         	goto	l606
  2947   00284C                     l4283:
  2948                           
  2949                           ; BSR set to: 0
  2950                           ;MCAL_layer/Interrupt/interrupt_external.c: 219:          gpio_pin_direction_intialize(&
      +                          (int_obj->interrupt_pin));
  2951   00284C  0E05               	movlw	5
  2952   00284E  25C9               	addwf	Interrupt_INTx_Pin_Init@int_obj& (0+255),w,b
  2953   002850  6FC1               	movwf	gpio_pin_direction_intialize@Pin_Config& (0+255),b
  2954   002852  0E00               	movlw	0
  2955   002854  21CA               	addwfc	(Interrupt_INTx_Pin_Init@int_obj+1)& (0+255),w,b
  2956   002856  6FC2               	movwf	(gpio_pin_direction_intialize@Pin_Config+1)& (0+255),b
  2957   002858  ECF0  F00A         	call	_gpio_pin_direction_intialize	;wreg free
  2958   00285C                     l606:
  2959   00285C  0012               	return		;funcret
  2960   00285E                     __end_of_Interrupt_INTx_Pin_Init:
  2961                           	callstack 0
  2962                           
  2963 ;; *************** function _gpio_pin_direction_intialize *****************
  2964 ;; Defined at:
  2965 ;;		line 31 in file "MCAL_layer/GPIO/gpio.c"
  2966 ;; Parameters:    Size  Location     Type
  2967 ;;  Pin_Config      2    0[BANK0 ] PTR const struct .
  2968 ;;		 -> RB_obj_1(6), INT2_obj(6), INT1_obj(6), INT0_obj(6), 
  2969 ;;		 -> lcd_4bit.lcd_pin(4), lcd_4bit(6), keypad.keyad_column_pin(4), keypad.keyad_row_pin(4), 
  2970 ;;		 -> keypad(8), 
  2971 ;; Auto vars:     Size  Location     Type
  2972 ;;  ret             1   34[COMRAM] unsigned char 
  2973 ;; Return value:  Size  Location     Type
  2974 ;;                  1    wreg      unsigned char 
  2975 ;; Registers used:
  2976 ;;		wreg, fsr2l, fsr2h, status,2, status,0, prodl, prodh
  2977 ;; Tracked objects:
  2978 ;;		On entry : 0/0
  2979 ;;		On exit  : 0/0
  2980 ;;		Unchanged: 0/0
  2981 ;; Data sizes:     COMRAM   BANK0   BANK1   BANK2   BANK3   BANK4   BANK5   BANK6   BANK7   BANK8   BANK9  BANK10  BANK1
      +1  BANK12  BANK13  BANK14  BANK15
  2982 ;;      Params:         0       2       0       0       0       0       0       0       0       0       0       0       
      +0       0       0       0       0
  2983 ;;      Locals:         1       0       0       0       0       0       0       0       0       0       0       0       
      +0       0       0       0       0
  2984 ;;      Temps:          0       6       0       0       0       0       0       0       0       0       0       0       
      +0       0       0       0       0
  2985 ;;      Totals:         1       8       0       0       0       0       0       0       0       0       0       0       
      +0       0       0       0       0
  2986 ;;Total ram usage:        9 bytes
  2987 ;; Hardware stack levels used: 1
  2988 ;; Hardware stack levels required when called: 6
  2989 ;; This function calls:
  2990 ;;		Nothing
  2991 ;; This function is called by:
  2992 ;;		_keypad_pin_initialize
  2993 ;;		_gpio_pin_intialize
  2994 ;;		_Interrupt_INTx_Pin_Init
  2995 ;;		_Interrupt_RBX_intialize
  2996 ;; This function uses a non-reentrant model
  2997 ;;
  2998                           
  2999                           	psect	text15
  3000   0015E0                     __ptext15:
  3001                           	callstack 0
  3002   0015E0                     _gpio_pin_direction_intialize:
  3003                           	callstack 21
  3004   0015E0                     
  3005                           ;MCAL_layer/GPIO/gpio.c: 32:     Std_ReturnType ret = (Std_ReturnType)0x01;
  3006   0015E0  0E01               	movlw	1
  3007   0015E2  6E23               	movwf	gpio_pin_direction_intialize@ret^0,c
  3008   0015E4                     
  3009                           ;MCAL_layer/GPIO/gpio.c: 33:     if(((void*)0) == Pin_Config || Pin_Config->pin > 8)
  3010   0015E4  0100               	movlb	0	; () banked
  3011   0015E6  51C1               	movf	gpio_pin_direction_intialize@Pin_Config& (0+255),w,b
  3012   0015E8  11C2               	iorwf	(gpio_pin_direction_intialize@Pin_Config+1)& (0+255),w,b
  3013   0015EA  B4D8               	btfsc	status,2,c
  3014   0015EC  EFFA  F00A         	goto	u3431
  3015   0015F0  EFFC  F00A         	goto	u3430
  3016   0015F4                     u3431:
  3017   0015F4  EF0D  F00B         	goto	l4099
  3018   0015F8                     u3430:
  3019   0015F8                     
  3020                           ; BSR set to: 0
  3021   0015F8  C0C1  FFD9         	movff	gpio_pin_direction_intialize@Pin_Config,fsr2l
  3022   0015FC  C0C2  FFDA         	movff	gpio_pin_direction_intialize@Pin_Config+1,fsr2h
  3023   001600  30DF               	rrcf	223,w,c
  3024   001602  32E8               	rrcf	wreg,f,c
  3025   001604  32E8               	rrcf	wreg,f,c
  3026   001606  0B07               	andlw	7
  3027   001608  6FC3               	movwf	??_gpio_pin_direction_intialize& (0+255),b
  3028   00160A  0E08               	movlw	8
  3029   00160C  65C3               	cpfsgt	??_gpio_pin_direction_intialize& (0+255),b
  3030   00160E  EF0B  F00B         	goto	u3441
  3031   001612  EF0D  F00B         	goto	u3440
  3032   001616                     u3441:
  3033   001616  EF11  F00B         	goto	l4101
  3034   00161A                     u3440:
  3035   00161A                     l4099:
  3036                           
  3037                           ; BSR set to: 0
  3038                           ;MCAL_layer/GPIO/gpio.c: 34:         ret = (Std_ReturnType)0x00;
  3039   00161A  0E00               	movlw	0
  3040   00161C  6E23               	movwf	gpio_pin_direction_intialize@ret^0,c
  3041   00161E  EF83  F00B         	goto	l399
  3042   001622                     l4101:
  3043                           
  3044                           ; BSR set to: 0
  3045                           ;MCAL_layer/GPIO/gpio.c: 36:     {;MCAL_layer/GPIO/gpio.c: 37:         if(Pin_Config->di
      +                          rection == OUTPUT)
  3046   001622  C0C1  FFD9         	movff	gpio_pin_direction_intialize@Pin_Config,fsr2l
  3047   001626  C0C2  FFDA         	movff	gpio_pin_direction_intialize@Pin_Config+1,fsr2h
  3048   00162A  BCDF               	btfsc	indf2,6,c
  3049   00162C  EF1A  F00B         	goto	u3451
  3050   001630  EF1C  F00B         	goto	u3450
  3051   001634                     u3451:
  3052   001634  EF4E  F00B         	goto	l4105
  3053   001638                     u3450:
  3054   001638                     
  3055                           ; BSR set to: 0
  3056                           ;MCAL_layer/GPIO/gpio.c: 38:             (*tris_reg[Pin_Config->port] &= ~((uint8)1 << P
      +                          in_Config->pin));
  3057   001638  C0C1  FFD9         	movff	gpio_pin_direction_intialize@Pin_Config,fsr2l
  3058   00163C  C0C2  FFDA         	movff	gpio_pin_direction_intialize@Pin_Config+1,fsr2h
  3059   001640  30DF               	rrcf	223,w,c
  3060   001642  32E8               	rrcf	wreg,f,c
  3061   001644  32E8               	rrcf	wreg,f,c
  3062   001646  0B07               	andlw	7
  3063   001648  6FC3               	movwf	??_gpio_pin_direction_intialize& (0+255),b
  3064   00164A  0E01               	movlw	1
  3065   00164C  6FC4               	movwf	(??_gpio_pin_direction_intialize+1)& (0+255),b
  3066   00164E  2BC3               	incf	??_gpio_pin_direction_intialize& (0+255),f,b
  3067   001650  EF2C  F00B         	goto	u3464
  3068   001654                     u3465:
  3069   001654  90D8               	bcf	status,0,c
  3070   001656  37C4               	rlcf	(??_gpio_pin_direction_intialize+1)& (0+255),f,b
  3071   001658                     u3464:
  3072   001658  2FC3               	decfsz	??_gpio_pin_direction_intialize& (0+255),f,b
  3073   00165A  EF2A  F00B         	goto	u3465
  3074   00165E  0100               	movlb	0	; () banked
  3075   001660  51C4               	movf	(??_gpio_pin_direction_intialize+1)& (0+255),w,b
  3076   001662  0AFF               	xorlw	255
  3077   001664  6FC5               	movwf	(??_gpio_pin_direction_intialize+2)& (0+255),b
  3078   001666  C0C1  FFD9         	movff	gpio_pin_direction_intialize@Pin_Config,fsr2l
  3079   00166A  C0C2  FFDA         	movff	gpio_pin_direction_intialize@Pin_Config+1,fsr2h
  3080   00166E  50DF               	movf	223,w,c
  3081   001670  0B07               	andlw	7
  3082   001672  6FC6               	movwf	(??_gpio_pin_direction_intialize+3)& (0+255),b
  3083   001674  51C6               	movf	(??_gpio_pin_direction_intialize+3)& (0+255),w,b
  3084   001676  0D02               	mullw	2
  3085   001678  0E9A               	movlw	low _tris_reg
  3086   00167A  24F3               	addwf	243,w,c
  3087   00167C  6ED9               	movwf	fsr2l,c
  3088   00167E  0E00               	movlw	high _tris_reg
  3089   001680  20F4               	addwfc	prodh,w,c
  3090   001682  6EDA               	movwf	fsr2h,c
  3091   001684  CFDE F0C7          	movff	postinc2,??_gpio_pin_direction_intialize+4
  3092   001688  CFDD F0C8          	movff	postdec2,??_gpio_pin_direction_intialize+5
  3093   00168C  C0C7  FFD9         	movff	??_gpio_pin_direction_intialize+4,fsr2l
  3094   001690  C0C8  FFDA         	movff	??_gpio_pin_direction_intialize+5,fsr2h
  3095   001694  51C5               	movf	(??_gpio_pin_direction_intialize+2)& (0+255),w,b
  3096   001696  16DF               	andwf	indf2,f,c
  3097   001698  EF83  F00B         	goto	l399
  3098   00169C                     l4105:
  3099                           
  3100                           ; BSR set to: 0
  3101   00169C  C0C1  FFD9         	movff	gpio_pin_direction_intialize@Pin_Config,fsr2l
  3102   0016A0  C0C2  FFDA         	movff	gpio_pin_direction_intialize@Pin_Config+1,fsr2h
  3103   0016A4  30DF               	rrcf	223,w,c
  3104   0016A6  32E8               	rrcf	wreg,f,c
  3105   0016A8  32E8               	rrcf	wreg,f,c
  3106   0016AA  0B07               	andlw	7
  3107   0016AC  6FC3               	movwf	??_gpio_pin_direction_intialize& (0+255),b
  3108   0016AE  0E01               	movlw	1
  3109   0016B0  6FC4               	movwf	(??_gpio_pin_direction_intialize+1)& (0+255),b
  3110   0016B2  2BC3               	incf	??_gpio_pin_direction_intialize& (0+255),f,b
  3111   0016B4  EF5E  F00B         	goto	u3474
  3112   0016B8                     u3475:
  3113   0016B8  90D8               	bcf	status,0,c
  3114   0016BA  37C4               	rlcf	(??_gpio_pin_direction_intialize+1)& (0+255),f,b
  3115   0016BC                     u3474:
  3116   0016BC  2FC3               	decfsz	??_gpio_pin_direction_intialize& (0+255),f,b
  3117   0016BE  EF5C  F00B         	goto	u3475
  3118   0016C2  C0C1  FFD9         	movff	gpio_pin_direction_intialize@Pin_Config,fsr2l
  3119   0016C6  C0C2  FFDA         	movff	gpio_pin_direction_intialize@Pin_Config+1,fsr2h
  3120   0016CA  50DF               	movf	223,w,c
  3121   0016CC  0B07               	andlw	7
  3122   0016CE  0100               	movlb	0	; () banked
  3123   0016D0  6FC5               	movwf	(??_gpio_pin_direction_intialize+2)& (0+255),b
  3124   0016D2  51C5               	movf	(??_gpio_pin_direction_intialize+2)& (0+255),w,b
  3125   0016D4  0D02               	mullw	2
  3126   0016D6  0E9A               	movlw	low _tris_reg
  3127   0016D8  24F3               	addwf	243,w,c
  3128   0016DA  6ED9               	movwf	fsr2l,c
  3129   0016DC  0E00               	movlw	high _tris_reg
  3130   0016DE  20F4               	addwfc	prodh,w,c
  3131   0016E0  6EDA               	movwf	fsr2h,c
  3132   0016E2  CFDE F0C6          	movff	postinc2,??_gpio_pin_direction_intialize+3
  3133   0016E6  CFDD F0C7          	movff	postdec2,??_gpio_pin_direction_intialize+4
  3134   0016EA  C0C6  FFD9         	movff	??_gpio_pin_direction_intialize+3,fsr2l
  3135   0016EE  C0C7  FFDA         	movff	??_gpio_pin_direction_intialize+4,fsr2h
  3136   0016F2  51C4               	movf	(??_gpio_pin_direction_intialize+1)& (0+255),w,b
  3137   0016F4  12DF               	iorwf	indf2,f,c
  3138   0016F6  50DF               	movf	indf2,w,c
  3139   0016F8  B4D8               	btfsc	status,2,c
  3140   0016FA  EF81  F00B         	goto	u3481
  3141   0016FE  EF83  F00B         	goto	u3480
  3142   001702                     u3481:
  3143   001702  EF0D  F00B         	goto	l4099
  3144   001706                     u3480:
  3145   001706                     l399:
  3146                           
  3147                           ; BSR set to: 0
  3148                           ;MCAL_layer/GPIO/gpio.c: 43:         return ret;
  3149   001706  5023               	movf	gpio_pin_direction_intialize@ret^0,w,c
  3150   001708                     
  3151                           ; BSR set to: 0
  3152   001708  0012               	return		;funcret
  3153   00170A                     __end_of_gpio_pin_direction_intialize:
  3154                           	callstack 0
  3155                           
  3156 ;; *************** function _Interrupt_INTx_Enable *****************
  3157 ;; Defined at:
  3158 ;;		line 68 in file "MCAL_layer/Interrupt/interrupt_external.c"
  3159 ;; Parameters:    Size  Location     Type
  3160 ;;  int_obj         2    0[BANK0 ] PTR const struct .
  3161 ;;		 -> INT2_obj(6), INT1_obj(6), INT0_obj(6), 
  3162 ;; Auto vars:     Size  Location     Type
  3163 ;;  ret             1    0        unsigned char 
  3164 ;; Return value:  Size  Location     Type
  3165 ;;                  1    wreg      unsigned char 
  3166 ;; Registers used:
  3167 ;;		wreg, fsr2l, fsr2h, status,2, status,0
  3168 ;; Tracked objects:
  3169 ;;		On entry : 0/0
  3170 ;;		On exit  : 0/0
  3171 ;;		Unchanged: 0/0
  3172 ;; Data sizes:     COMRAM   BANK0   BANK1   BANK2   BANK3   BANK4   BANK5   BANK6   BANK7   BANK8   BANK9  BANK10  BANK1
      +1  BANK12  BANK13  BANK14  BANK15
  3173 ;;      Params:         0       2       0       0       0       0       0       0       0       0       0       0       
      +0       0       0       0       0
  3174 ;;      Locals:         0       0       0       0       0       0       0       0       0       0       0       0       
      +0       0       0       0       0
  3175 ;;      Temps:          0       2       0       0       0       0       0       0       0       0       0       0       
      +0       0       0       0       0
  3176 ;;      Totals:         0       4       0       0       0       0       0       0       0       0       0       0       
      +0       0       0       0       0
  3177 ;;Total ram usage:        4 bytes
  3178 ;; Hardware stack levels used: 1
  3179 ;; Hardware stack levels required when called: 6
  3180 ;; This function calls:
  3181 ;;		Nothing
  3182 ;; This function is called by:
  3183 ;;		_Interrupt_INTX_intialize
  3184 ;; This function uses a non-reentrant model
  3185 ;;
  3186                           
  3187                           	psect	text16
  3188   0022D8                     __ptext16:
  3189                           	callstack 0
  3190   0022D8                     _Interrupt_INTx_Enable:
  3191                           	callstack 22
  3192   0022D8                     
  3193                           ;MCAL_layer/Interrupt/interrupt_external.c: 70:     if(((void*)0) == int_obj)
  3194   0022D8  0100               	movlb	0	; () banked
  3195   0022DA  51C1               	movf	Interrupt_INTx_Enable@int_obj& (0+255),w,b
  3196   0022DC  11C2               	iorwf	(Interrupt_INTx_Enable@int_obj+1)& (0+255),w,b
  3197   0022DE  A4D8               	btfss	status,2,c
  3198   0022E0  EF74  F011         	goto	u3721
  3199   0022E4  EF76  F011         	goto	u3720
  3200   0022E8                     u3721:
  3201   0022E8  EF87  F011         	goto	l4375
  3202   0022EC                     u3720:
  3203   0022EC                     l4365:
  3204                           
  3205                           ; BSR set to: 0
  3206   0022EC  EFA6  F011         	goto	l549
  3207   0022F0                     l544:
  3208                           
  3209                           ; BSR set to: 0
  3210                           ;MCAL_layer/Interrupt/interrupt_external.c: 79:                 {;MCAL_layer/Interrupt/i
      +                          nterrupt_external.c: 80:                     (INTCONbits.PEIE = 1);
  3211   0022F0  8CF2               	bsf	242,6,c	;volatile
  3212                           
  3213                           ;MCAL_layer/Interrupt/interrupt_external.c: 81:                     (INTCONbits.GIE = 1)
      +                          ;
  3214   0022F2  8EF2               	bsf	242,7,c	;volatile
  3215                           
  3216                           ;MCAL_layer/Interrupt/interrupt_external.c: 82:                 };MCAL_layer/Interrupt/i
      +                          nterrupt_external.c: 84:                      (INTCONbits.INT0E = 1);
  3217   0022F4  88F2               	bsf	242,4,c	;volatile
  3218   0022F6                     l4367:
  3219                           
  3220                           ; BSR set to: 0
  3221                           ;MCAL_layer/Interrupt/interrupt_external.c: 86:             break;
  3222   0022F6  EFA6  F011         	goto	l549
  3223   0022FA                     l546:
  3224                           
  3225                           ; BSR set to: 0
  3226                           ;MCAL_layer/Interrupt/interrupt_external.c: 100:                 {;MCAL_layer/Interrupt/
      +                          interrupt_external.c: 101:                     (INTCONbits.PEIE = 1);
  3227   0022FA  8CF2               	bsf	242,6,c	;volatile
  3228                           
  3229                           ;MCAL_layer/Interrupt/interrupt_external.c: 102:                     (INTCONbits.GIE = 1
      +                          );
  3230   0022FC  8EF2               	bsf	242,7,c	;volatile
  3231                           
  3232                           ;MCAL_layer/Interrupt/interrupt_external.c: 103:                 };MCAL_layer/Interrupt/
      +                          interrupt_external.c: 105:                      (INTCON3bits.INT1E = 1);
  3233   0022FE  86F0               	bsf	240,3,c	;volatile
  3234   002300  EF7B  F011         	goto	l4367
  3235   002304                     l547:
  3236                           
  3237                           ; BSR set to: 0
  3238                           ;MCAL_layer/Interrupt/interrupt_external.c: 122:                 {;MCAL_layer/Interrupt/
      +                          interrupt_external.c: 123:                     (INTCONbits.PEIE = 1);
  3239   002304  8CF2               	bsf	242,6,c	;volatile
  3240                           
  3241                           ;MCAL_layer/Interrupt/interrupt_external.c: 124:                     (INTCONbits.GIE = 1
      +                          );
  3242   002306  8EF2               	bsf	242,7,c	;volatile
  3243                           
  3244                           ;MCAL_layer/Interrupt/interrupt_external.c: 125:                 };MCAL_layer/Interrupt/
      +                          interrupt_external.c: 128:                      (INTCON3bits.INT2E = 1);
  3245   002308  88F0               	bsf	240,4,c	;volatile
  3246   00230A  EF7B  F011         	goto	l4367
  3247   00230E                     l4375:
  3248                           
  3249                           ; BSR set to: 0
  3250   00230E  EE20 F002          	lfsr	2,2
  3251   002312  51C1               	movf	Interrupt_INTx_Enable@int_obj& (0+255),w,b
  3252   002314  26D9               	addwf	fsr2l,f,c
  3253   002316  51C2               	movf	(Interrupt_INTx_Enable@int_obj+1)& (0+255),w,b
  3254   002318  22DA               	addwfc	fsr2h,f,c
  3255   00231A  50DF               	movf	indf2,w,c
  3256   00231C  6FC3               	movwf	??_Interrupt_INTx_Enable& (0+255),b
  3257   00231E  6BC4               	clrf	(??_Interrupt_INTx_Enable+1)& (0+255),b
  3258                           
  3259                           ; Switch on 2 bytes has been partitioned into a top level switch of size 1, and 1 sub-sw
      +                          itches
  3260                           ; Switch size 1, requested type "simple"
  3261                           ; Number of cases is 1, Range of values is 0 to 0
  3262                           ; switch strategies available:
  3263                           ; Name         Instructions Cycles
  3264                           ; simple_byte            4     3 (average)
  3265                           ;	Chosen strategy is simple_byte
  3266   002320  51C4               	movf	(??_Interrupt_INTx_Enable+1)& (0+255),w,b
  3267   002322  0A00               	xorlw	0	; case 0
  3268   002324  B4D8               	btfsc	status,2,c
  3269   002326  EF97  F011         	goto	l5123
  3270   00232A  EF76  F011         	goto	l4365
  3271   00232E                     l5123:
  3272                           
  3273                           ; BSR set to: 0
  3274                           ; Switch size 1, requested type "simple"
  3275                           ; Number of cases is 3, Range of values is 0 to 2
  3276                           ; switch strategies available:
  3277                           ; Name         Instructions Cycles
  3278                           ; simple_byte           10     6 (average)
  3279                           ;	Chosen strategy is simple_byte
  3280   00232E  51C3               	movf	??_Interrupt_INTx_Enable& (0+255),w,b
  3281   002330  0A00               	xorlw	0	; case 0
  3282   002332  B4D8               	btfsc	status,2,c
  3283   002334  EF78  F011         	goto	l544
  3284   002338  0A01               	xorlw	1	; case 1
  3285   00233A  B4D8               	btfsc	status,2,c
  3286   00233C  EF7D  F011         	goto	l546
  3287   002340  0A03               	xorlw	3	; case 2
  3288   002342  B4D8               	btfsc	status,2,c
  3289   002344  EF82  F011         	goto	l547
  3290   002348  EF76  F011         	goto	l4365
  3291   00234C                     l549:
  3292                           
  3293                           ; BSR set to: 0
  3294   00234C  0012               	return		;funcret
  3295   00234E                     __end_of_Interrupt_INTx_Enable:
  3296                           	callstack 0
  3297                           
  3298 ;; *************** function _Interrupt_INTx_Edge_Init *****************
  3299 ;; Defined at:
  3300 ;;		line 184 in file "MCAL_layer/Interrupt/interrupt_external.c"
  3301 ;; Parameters:    Size  Location     Type
  3302 ;;  int_obj         2    0[BANK0 ] PTR const struct .
  3303 ;;		 -> INT2_obj(6), INT1_obj(6), INT0_obj(6), 
  3304 ;; Auto vars:     Size  Location     Type
  3305 ;;  ret             1    0        unsigned char 
  3306 ;; Return value:  Size  Location     Type
  3307 ;;                  1    wreg      unsigned char 
  3308 ;; Registers used:
  3309 ;;		wreg, fsr2l, fsr2h, status,2, status,0
  3310 ;; Tracked objects:
  3311 ;;		On entry : 0/0
  3312 ;;		On exit  : 0/0
  3313 ;;		Unchanged: 0/0
  3314 ;; Data sizes:     COMRAM   BANK0   BANK1   BANK2   BANK3   BANK4   BANK5   BANK6   BANK7   BANK8   BANK9  BANK10  BANK1
      +1  BANK12  BANK13  BANK14  BANK15
  3315 ;;      Params:         0       2       0       0       0       0       0       0       0       0       0       0       
      +0       0       0       0       0
  3316 ;;      Locals:         0       0       0       0       0       0       0       0       0       0       0       0       
      +0       0       0       0       0
  3317 ;;      Temps:          0       2       0       0       0       0       0       0       0       0       0       0       
      +0       0       0       0       0
  3318 ;;      Totals:         0       4       0       0       0       0       0       0       0       0       0       0       
      +0       0       0       0       0
  3319 ;;Total ram usage:        4 bytes
  3320 ;; Hardware stack levels used: 1
  3321 ;; Hardware stack levels required when called: 6
  3322 ;; This function calls:
  3323 ;;		Nothing
  3324 ;; This function is called by:
  3325 ;;		_Interrupt_INTX_intialize
  3326 ;; This function uses a non-reentrant model
  3327 ;;
  3328                           
  3329                           	psect	text17
  3330   00182E                     __ptext17:
  3331                           	callstack 0
  3332   00182E                     _Interrupt_INTx_Edge_Init:
  3333                           	callstack 22
  3334   00182E                     
  3335                           ;MCAL_layer/Interrupt/interrupt_external.c: 186:     if(((void*)0) == int_obj)
  3336   00182E  0100               	movlb	0	; () banked
  3337   001830  51C1               	movf	Interrupt_INTx_Edge_Init@int_obj& (0+255),w,b
  3338   001832  11C2               	iorwf	(Interrupt_INTx_Edge_Init@int_obj+1)& (0+255),w,b
  3339   001834  A4D8               	btfss	status,2,c
  3340   001836  EF1F  F00C         	goto	u3641
  3341   00183A  EF21  F00C         	goto	u3640
  3342   00183E                     u3641:
  3343   00183E  EF89  F00C         	goto	l4325
  3344   001842                     u3640:
  3345   001842                     l4291:
  3346                           
  3347                           ; BSR set to: 0
  3348   001842  EFA8  F00C         	goto	l601
  3349   001846                     l4293:
  3350                           
  3351                           ; BSR set to: 0
  3352                           ;MCAL_layer/Interrupt/interrupt_external.c: 191:                 if(0x00 == int_obj->edg
      +                          e_status){ (INTCON2bits.INTEDG0 = 0); }
  3353   001846  EE20 F003          	lfsr	2,3
  3354   00184A  51C1               	movf	Interrupt_INTx_Edge_Init@int_obj& (0+255),w,b
  3355   00184C  26D9               	addwf	fsr2l,f,c
  3356   00184E  51C2               	movf	(Interrupt_INTx_Edge_Init@int_obj+1)& (0+255),w,b
  3357   001850  22DA               	addwfc	fsr2h,f,c
  3358   001852  50DF               	movf	indf2,w,c
  3359   001854  A4D8               	btfss	status,2,c
  3360   001856  EF2F  F00C         	goto	u3651
  3361   00185A  EF31  F00C         	goto	u3650
  3362   00185E                     u3651:
  3363   00185E  EF34  F00C         	goto	l4297
  3364   001862                     u3650:
  3365   001862                     
  3366                           ; BSR set to: 0
  3367   001862  9CF1               	bcf	241,6,c	;volatile
  3368   001864  EF43  F00C         	goto	l4301
  3369   001868                     l4297:
  3370                           
  3371                           ; BSR set to: 0
  3372   001868  EE20 F003          	lfsr	2,3
  3373   00186C  51C1               	movf	Interrupt_INTx_Edge_Init@int_obj& (0+255),w,b
  3374   00186E  26D9               	addwf	fsr2l,f,c
  3375   001870  51C2               	movf	(Interrupt_INTx_Edge_Init@int_obj+1)& (0+255),w,b
  3376   001872  22DA               	addwfc	fsr2h,f,c
  3377   001874  04DE               	decf	postinc2,w,c
  3378   001876  A4D8               	btfss	status,2,c
  3379   001878  EF40  F00C         	goto	u3661
  3380   00187C  EF42  F00C         	goto	u3660
  3381   001880                     u3661:
  3382   001880  EF43  F00C         	goto	l4301
  3383   001884                     u3660:
  3384   001884                     
  3385                           ; BSR set to: 0
  3386   001884  8CF1               	bsf	241,6,c	;volatile
  3387   001886                     l4301:
  3388                           
  3389                           ; BSR set to: 0
  3390                           ;MCAL_layer/Interrupt/interrupt_external.c: 195:                 break;
  3391   001886  EFA8  F00C         	goto	l601
  3392   00188A                     l4303:
  3393                           
  3394                           ; BSR set to: 0
  3395                           ;MCAL_layer/Interrupt/interrupt_external.c: 197:                 if(0x00 == int_obj->edg
      +                          e_status){ (INTCON2bits.INTEDG1 = 0); }
  3396   00188A  EE20 F003          	lfsr	2,3
  3397   00188E  51C1               	movf	Interrupt_INTx_Edge_Init@int_obj& (0+255),w,b
  3398   001890  26D9               	addwf	fsr2l,f,c
  3399   001892  51C2               	movf	(Interrupt_INTx_Edge_Init@int_obj+1)& (0+255),w,b
  3400   001894  22DA               	addwfc	fsr2h,f,c
  3401   001896  50DF               	movf	indf2,w,c
  3402   001898  A4D8               	btfss	status,2,c
  3403   00189A  EF51  F00C         	goto	u3671
  3404   00189E  EF53  F00C         	goto	u3670
  3405   0018A2                     u3671:
  3406   0018A2  EF56  F00C         	goto	l4307
  3407   0018A6                     u3670:
  3408   0018A6                     
  3409                           ; BSR set to: 0
  3410   0018A6  9AF1               	bcf	241,5,c	;volatile
  3411   0018A8  EF43  F00C         	goto	l4301
  3412   0018AC                     l4307:
  3413                           
  3414                           ; BSR set to: 0
  3415   0018AC  EE20 F003          	lfsr	2,3
  3416   0018B0  51C1               	movf	Interrupt_INTx_Edge_Init@int_obj& (0+255),w,b
  3417   0018B2  26D9               	addwf	fsr2l,f,c
  3418   0018B4  51C2               	movf	(Interrupt_INTx_Edge_Init@int_obj+1)& (0+255),w,b
  3419   0018B6  22DA               	addwfc	fsr2h,f,c
  3420   0018B8  04DE               	decf	postinc2,w,c
  3421   0018BA  A4D8               	btfss	status,2,c
  3422   0018BC  EF62  F00C         	goto	u3681
  3423   0018C0  EF64  F00C         	goto	u3680
  3424   0018C4                     u3681:
  3425   0018C4  EF43  F00C         	goto	l4301
  3426   0018C8                     u3680:
  3427   0018C8                     
  3428                           ; BSR set to: 0
  3429   0018C8  8AF1               	bsf	241,5,c	;volatile
  3430   0018CA  EF43  F00C         	goto	l4301
  3431   0018CE                     l4313:
  3432                           
  3433                           ; BSR set to: 0
  3434                           ;MCAL_layer/Interrupt/interrupt_external.c: 203:                 if(0x00 == int_obj->edg
      +                          e_status){ (INTCON2bits.INTEDG2 = 0); }
  3435   0018CE  EE20 F003          	lfsr	2,3
  3436   0018D2  51C1               	movf	Interrupt_INTx_Edge_Init@int_obj& (0+255),w,b
  3437   0018D4  26D9               	addwf	fsr2l,f,c
  3438   0018D6  51C2               	movf	(Interrupt_INTx_Edge_Init@int_obj+1)& (0+255),w,b
  3439   0018D8  22DA               	addwfc	fsr2h,f,c
  3440   0018DA  50DF               	movf	indf2,w,c
  3441   0018DC  A4D8               	btfss	status,2,c
  3442   0018DE  EF73  F00C         	goto	u3691
  3443   0018E2  EF75  F00C         	goto	u3690
  3444   0018E6                     u3691:
  3445   0018E6  EF78  F00C         	goto	l4317
  3446   0018EA                     u3690:
  3447   0018EA                     
  3448                           ; BSR set to: 0
  3449   0018EA  98F1               	bcf	241,4,c	;volatile
  3450   0018EC  EF43  F00C         	goto	l4301
  3451   0018F0                     l4317:
  3452                           
  3453                           ; BSR set to: 0
  3454   0018F0  EE20 F003          	lfsr	2,3
  3455   0018F4  51C1               	movf	Interrupt_INTx_Edge_Init@int_obj& (0+255),w,b
  3456   0018F6  26D9               	addwf	fsr2l,f,c
  3457   0018F8  51C2               	movf	(Interrupt_INTx_Edge_Init@int_obj+1)& (0+255),w,b
  3458   0018FA  22DA               	addwfc	fsr2h,f,c
  3459   0018FC  04DE               	decf	postinc2,w,c
  3460   0018FE  A4D8               	btfss	status,2,c
  3461   001900  EF84  F00C         	goto	u3701
  3462   001904  EF86  F00C         	goto	u3700
  3463   001908                     u3701:
  3464   001908  EF43  F00C         	goto	l4301
  3465   00190C                     u3700:
  3466   00190C                     
  3467                           ; BSR set to: 0
  3468   00190C  88F1               	bsf	241,4,c	;volatile
  3469   00190E  EF43  F00C         	goto	l4301
  3470   001912                     l4325:
  3471                           
  3472                           ; BSR set to: 0
  3473   001912  EE20 F002          	lfsr	2,2
  3474   001916  51C1               	movf	Interrupt_INTx_Edge_Init@int_obj& (0+255),w,b
  3475   001918  26D9               	addwf	fsr2l,f,c
  3476   00191A  51C2               	movf	(Interrupt_INTx_Edge_Init@int_obj+1)& (0+255),w,b
  3477   00191C  22DA               	addwfc	fsr2h,f,c
  3478   00191E  50DF               	movf	indf2,w,c
  3479   001920  6FC3               	movwf	??_Interrupt_INTx_Edge_Init& (0+255),b
  3480   001922  6BC4               	clrf	(??_Interrupt_INTx_Edge_Init+1)& (0+255),b
  3481                           
  3482                           ; Switch on 2 bytes has been partitioned into a top level switch of size 1, and 1 sub-sw
      +                          itches
  3483                           ; Switch size 1, requested type "simple"
  3484                           ; Number of cases is 1, Range of values is 0 to 0
  3485                           ; switch strategies available:
  3486                           ; Name         Instructions Cycles
  3487                           ; simple_byte            4     3 (average)
  3488                           ;	Chosen strategy is simple_byte
  3489   001924  51C4               	movf	(??_Interrupt_INTx_Edge_Init+1)& (0+255),w,b
  3490   001926  0A00               	xorlw	0	; case 0
  3491   001928  B4D8               	btfsc	status,2,c
  3492   00192A  EF99  F00C         	goto	l5125
  3493   00192E  EF21  F00C         	goto	l4291
  3494   001932                     l5125:
  3495                           
  3496                           ; BSR set to: 0
  3497                           ; Switch size 1, requested type "simple"
  3498                           ; Number of cases is 3, Range of values is 0 to 2
  3499                           ; switch strategies available:
  3500                           ; Name         Instructions Cycles
  3501                           ; simple_byte           10     6 (average)
  3502                           ;	Chosen strategy is simple_byte
  3503   001932  51C3               	movf	??_Interrupt_INTx_Edge_Init& (0+255),w,b
  3504   001934  0A00               	xorlw	0	; case 0
  3505   001936  B4D8               	btfsc	status,2,c
  3506   001938  EF23  F00C         	goto	l4293
  3507   00193C  0A01               	xorlw	1	; case 1
  3508   00193E  B4D8               	btfsc	status,2,c
  3509   001940  EF45  F00C         	goto	l4303
  3510   001944  0A03               	xorlw	3	; case 2
  3511   001946  B4D8               	btfsc	status,2,c
  3512   001948  EF67  F00C         	goto	l4313
  3513   00194C  EF21  F00C         	goto	l4291
  3514   001950                     l601:
  3515                           
  3516                           ; BSR set to: 0
  3517   001950  0012               	return		;funcret
  3518   001952                     __end_of_Interrupt_INTx_Edge_Init:
  3519                           	callstack 0
  3520                           
  3521 ;; *************** function _Interrupt_INTx_Disable *****************
  3522 ;; Defined at:
  3523 ;;		line 136 in file "MCAL_layer/Interrupt/interrupt_external.c"
  3524 ;; Parameters:    Size  Location     Type
  3525 ;;  int_obj         2    0[BANK0 ] PTR const struct .
  3526 ;;		 -> INT2_obj(6), INT1_obj(6), INT0_obj(6), 
  3527 ;; Auto vars:     Size  Location     Type
  3528 ;;  ret             1    0        unsigned char 
  3529 ;; Return value:  Size  Location     Type
  3530 ;;                  1    wreg      unsigned char 
  3531 ;; Registers used:
  3532 ;;		wreg, fsr2l, fsr2h, status,2, status,0
  3533 ;; Tracked objects:
  3534 ;;		On entry : 0/0
  3535 ;;		On exit  : 0/0
  3536 ;;		Unchanged: 0/0
  3537 ;; Data sizes:     COMRAM   BANK0   BANK1   BANK2   BANK3   BANK4   BANK5   BANK6   BANK7   BANK8   BANK9  BANK10  BANK1
      +1  BANK12  BANK13  BANK14  BANK15
  3538 ;;      Params:         0       2       0       0       0       0       0       0       0       0       0       0       
      +0       0       0       0       0
  3539 ;;      Locals:         0       0       0       0       0       0       0       0       0       0       0       0       
      +0       0       0       0       0
  3540 ;;      Temps:          0       2       0       0       0       0       0       0       0       0       0       0       
      +0       0       0       0       0
  3541 ;;      Totals:         0       4       0       0       0       0       0       0       0       0       0       0       
      +0       0       0       0       0
  3542 ;;Total ram usage:        4 bytes
  3543 ;; Hardware stack levels used: 1
  3544 ;; Hardware stack levels required when called: 6
  3545 ;; This function calls:
  3546 ;;		Nothing
  3547 ;; This function is called by:
  3548 ;;		_Interrupt_INTX_intialize
  3549 ;;		_Interrupt_INTX_deintialize
  3550 ;; This function uses a non-reentrant model
  3551 ;;
  3552                           
  3553                           	psect	text18
  3554   00249E                     __ptext18:
  3555                           	callstack 0
  3556   00249E                     _Interrupt_INTx_Disable:
  3557                           	callstack 22
  3558   00249E                     
  3559                           ;MCAL_layer/Interrupt/interrupt_external.c: 138:     if(((void*)0) == int_obj)
  3560   00249E  0100               	movlb	0	; () banked
  3561   0024A0  51C1               	movf	Interrupt_INTx_Disable@int_obj& (0+255),w,b
  3562   0024A2  11C2               	iorwf	(Interrupt_INTx_Disable@int_obj+1)& (0+255),w,b
  3563   0024A4  A4D8               	btfss	status,2,c
  3564   0024A6  EF57  F012         	goto	u3611
  3565   0024AA  EF59  F012         	goto	u3610
  3566   0024AE                     u3611:
  3567   0024AE  EF64  F012         	goto	l4243
  3568   0024B2                     u3610:
  3569   0024B2                     l4233:
  3570                           
  3571                           ; BSR set to: 0
  3572   0024B2  EF83  F012         	goto	l560
  3573   0024B6                     l555:
  3574                           
  3575                           ; BSR set to: 0
  3576                           ;MCAL_layer/Interrupt/interrupt_external.c: 144:                 (INTCONbits.INT0E = 0);
  3577   0024B6  98F2               	bcf	242,4,c	;volatile
  3578   0024B8                     l4235:
  3579                           
  3580                           ; BSR set to: 0
  3581                           ;MCAL_layer/Interrupt/interrupt_external.c: 146:                 break;
  3582   0024B8  EF83  F012         	goto	l560
  3583   0024BC                     l557:
  3584                           
  3585                           ; BSR set to: 0
  3586                           ;MCAL_layer/Interrupt/interrupt_external.c: 148:                 (INTCON3bits.INT1E = 0)
      +                          ;
  3587   0024BC  96F0               	bcf	240,3,c	;volatile
  3588   0024BE  EF5C  F012         	goto	l4235
  3589   0024C2                     l558:
  3590                           
  3591                           ; BSR set to: 0
  3592                           ;MCAL_layer/Interrupt/interrupt_external.c: 152:                 (INTCON3bits.INT2E = 0)
      +                          ;
  3593   0024C2  98F0               	bcf	240,4,c	;volatile
  3594   0024C4  EF5C  F012         	goto	l4235
  3595   0024C8                     l4243:
  3596                           
  3597                           ; BSR set to: 0
  3598   0024C8  EE20 F002          	lfsr	2,2
  3599   0024CC  51C1               	movf	Interrupt_INTx_Disable@int_obj& (0+255),w,b
  3600   0024CE  26D9               	addwf	fsr2l,f,c
  3601   0024D0  51C2               	movf	(Interrupt_INTx_Disable@int_obj+1)& (0+255),w,b
  3602   0024D2  22DA               	addwfc	fsr2h,f,c
  3603   0024D4  50DF               	movf	indf2,w,c
  3604   0024D6  6FC3               	movwf	??_Interrupt_INTx_Disable& (0+255),b
  3605   0024D8  6BC4               	clrf	(??_Interrupt_INTx_Disable+1)& (0+255),b
  3606                           
  3607                           ; Switch on 2 bytes has been partitioned into a top level switch of size 1, and 1 sub-sw
      +                          itches
  3608                           ; Switch size 1, requested type "simple"
  3609                           ; Number of cases is 1, Range of values is 0 to 0
  3610                           ; switch strategies available:
  3611                           ; Name         Instructions Cycles
  3612                           ; simple_byte            4     3 (average)
  3613                           ;	Chosen strategy is simple_byte
  3614   0024DA  51C4               	movf	(??_Interrupt_INTx_Disable+1)& (0+255),w,b
  3615   0024DC  0A00               	xorlw	0	; case 0
  3616   0024DE  B4D8               	btfsc	status,2,c
  3617   0024E0  EF74  F012         	goto	l5127
  3618   0024E4  EF59  F012         	goto	l4233
  3619   0024E8                     l5127:
  3620                           
  3621                           ; BSR set to: 0
  3622                           ; Switch size 1, requested type "simple"
  3623                           ; Number of cases is 3, Range of values is 0 to 2
  3624                           ; switch strategies available:
  3625                           ; Name         Instructions Cycles
  3626                           ; simple_byte           10     6 (average)
  3627                           ;	Chosen strategy is simple_byte
  3628   0024E8  51C3               	movf	??_Interrupt_INTx_Disable& (0+255),w,b
  3629   0024EA  0A00               	xorlw	0	; case 0
  3630   0024EC  B4D8               	btfsc	status,2,c
  3631   0024EE  EF5B  F012         	goto	l555
  3632   0024F2  0A01               	xorlw	1	; case 1
  3633   0024F4  B4D8               	btfsc	status,2,c
  3634   0024F6  EF5E  F012         	goto	l557
  3635   0024FA  0A03               	xorlw	3	; case 2
  3636   0024FC  B4D8               	btfsc	status,2,c
  3637   0024FE  EF61  F012         	goto	l558
  3638   002502  EF59  F012         	goto	l4233
  3639   002506                     l560:
  3640                           
  3641                           ; BSR set to: 0
  3642   002506  0012               	return		;funcret
  3643   002508                     __end_of_Interrupt_INTx_Disable:
  3644                           	callstack 0
  3645                           
  3646 ;; *************** function _Interrupt_INTx_Clear_Flag *****************
  3647 ;; Defined at:
  3648 ;;		line 223 in file "MCAL_layer/Interrupt/interrupt_external.c"
  3649 ;; Parameters:    Size  Location     Type
  3650 ;;  int_obj         2    0[BANK0 ] PTR const struct .
  3651 ;;		 -> INT2_obj(6), INT1_obj(6), INT0_obj(6), 
  3652 ;; Auto vars:     Size  Location     Type
  3653 ;;  ret             1    0        unsigned char 
  3654 ;; Return value:  Size  Location     Type
  3655 ;;                  1    wreg      unsigned char 
  3656 ;; Registers used:
  3657 ;;		wreg, fsr2l, fsr2h, status,2, status,0
  3658 ;; Tracked objects:
  3659 ;;		On entry : 0/0
  3660 ;;		On exit  : 0/0
  3661 ;;		Unchanged: 0/0
  3662 ;; Data sizes:     COMRAM   BANK0   BANK1   BANK2   BANK3   BANK4   BANK5   BANK6   BANK7   BANK8   BANK9  BANK10  BANK1
      +1  BANK12  BANK13  BANK14  BANK15
  3663 ;;      Params:         0       2       0       0       0       0       0       0       0       0       0       0       
      +0       0       0       0       0
  3664 ;;      Locals:         0       0       0       0       0       0       0       0       0       0       0       0       
      +0       0       0       0       0
  3665 ;;      Temps:          0       2       0       0       0       0       0       0       0       0       0       0       
      +0       0       0       0       0
  3666 ;;      Totals:         0       4       0       0       0       0       0       0       0       0       0       0       
      +0       0       0       0       0
  3667 ;;Total ram usage:        4 bytes
  3668 ;; Hardware stack levels used: 1
  3669 ;; Hardware stack levels required when called: 6
  3670 ;; This function calls:
  3671 ;;		Nothing
  3672 ;; This function is called by:
  3673 ;;		_Interrupt_INTX_intialize
  3674 ;; This function uses a non-reentrant model
  3675 ;;
  3676                           
  3677                           	psect	text19
  3678   002508                     __ptext19:
  3679                           	callstack 0
  3680   002508                     _Interrupt_INTx_Clear_Flag:
  3681                           	callstack 22
  3682   002508                     
  3683                           ;MCAL_layer/Interrupt/interrupt_external.c: 225:     if(((void*)0) == int_obj){
  3684   002508  0100               	movlb	0	; () banked
  3685   00250A  51C1               	movf	Interrupt_INTx_Clear_Flag@int_obj& (0+255),w,b
  3686   00250C  11C2               	iorwf	(Interrupt_INTx_Clear_Flag@int_obj+1)& (0+255),w,b
  3687   00250E  A4D8               	btfss	status,2,c
  3688   002510  EF8C  F012         	goto	u3621
  3689   002514  EF8E  F012         	goto	u3620
  3690   002518                     u3621:
  3691   002518  EF99  F012         	goto	l4267
  3692   00251C                     u3620:
  3693   00251C                     l4257:
  3694                           
  3695                           ; BSR set to: 0
  3696                           ;MCAL_layer/Interrupt/interrupt_external.c: 227:     }
  3697   00251C  EFB8  F012         	goto	l617
  3698   002520                     l612:
  3699                           
  3700                           ; BSR set to: 0
  3701                           ;MCAL_layer/Interrupt/interrupt_external.c: 231:                 (INTCONbits.INT0F = 0);
  3702   002520  92F2               	bcf	242,1,c	;volatile
  3703   002522                     l4259:
  3704                           
  3705                           ; BSR set to: 0
  3706                           ;MCAL_layer/Interrupt/interrupt_external.c: 233:                 break;
  3707   002522  EFB8  F012         	goto	l617
  3708   002526                     l614:
  3709                           
  3710                           ; BSR set to: 0
  3711                           ;MCAL_layer/Interrupt/interrupt_external.c: 235:                 (INTCON3bits.INT1F = 0)
      +                          ;
  3712   002526  90F0               	bcf	240,0,c	;volatile
  3713   002528  EF91  F012         	goto	l4259
  3714   00252C                     l615:
  3715                           
  3716                           ; BSR set to: 0
  3717                           ;MCAL_layer/Interrupt/interrupt_external.c: 239:                 (INTCON3bits.INT2F = 0)
      +                          ;
  3718   00252C  92F0               	bcf	240,1,c	;volatile
  3719   00252E  EF91  F012         	goto	l4259
  3720   002532                     l4267:
  3721                           
  3722                           ; BSR set to: 0
  3723   002532  EE20 F002          	lfsr	2,2
  3724   002536  51C1               	movf	Interrupt_INTx_Clear_Flag@int_obj& (0+255),w,b
  3725   002538  26D9               	addwf	fsr2l,f,c
  3726   00253A  51C2               	movf	(Interrupt_INTx_Clear_Flag@int_obj+1)& (0+255),w,b
  3727   00253C  22DA               	addwfc	fsr2h,f,c
  3728   00253E  50DF               	movf	indf2,w,c
  3729   002540  6FC3               	movwf	??_Interrupt_INTx_Clear_Flag& (0+255),b
  3730   002542  6BC4               	clrf	(??_Interrupt_INTx_Clear_Flag+1)& (0+255),b
  3731                           
  3732                           ; Switch on 2 bytes has been partitioned into a top level switch of size 1, and 1 sub-sw
      +                          itches
  3733                           ; Switch size 1, requested type "simple"
  3734                           ; Number of cases is 1, Range of values is 0 to 0
  3735                           ; switch strategies available:
  3736                           ; Name         Instructions Cycles
  3737                           ; simple_byte            4     3 (average)
  3738                           ;	Chosen strategy is simple_byte
  3739   002544  51C4               	movf	(??_Interrupt_INTx_Clear_Flag+1)& (0+255),w,b
  3740   002546  0A00               	xorlw	0	; case 0
  3741   002548  B4D8               	btfsc	status,2,c
  3742   00254A  EFA9  F012         	goto	l5129
  3743   00254E  EF8E  F012         	goto	l4257
  3744   002552                     l5129:
  3745                           
  3746                           ; BSR set to: 0
  3747                           ; Switch size 1, requested type "simple"
  3748                           ; Number of cases is 3, Range of values is 0 to 2
  3749                           ; switch strategies available:
  3750                           ; Name         Instructions Cycles
  3751                           ; simple_byte           10     6 (average)
  3752                           ;	Chosen strategy is simple_byte
  3753   002552  51C3               	movf	??_Interrupt_INTx_Clear_Flag& (0+255),w,b
  3754   002554  0A00               	xorlw	0	; case 0
  3755   002556  B4D8               	btfsc	status,2,c
  3756   002558  EF90  F012         	goto	l612
  3757   00255C  0A01               	xorlw	1	; case 1
  3758   00255E  B4D8               	btfsc	status,2,c
  3759   002560  EF93  F012         	goto	l614
  3760   002564  0A03               	xorlw	3	; case 2
  3761   002566  B4D8               	btfsc	status,2,c
  3762   002568  EF96  F012         	goto	l615
  3763   00256C  EF8E  F012         	goto	l4257
  3764   002570                     l617:
  3765                           
  3766                           ; BSR set to: 0
  3767   002570  0012               	return		;funcret
  3768   002572                     __end_of_Interrupt_INTx_Clear_Flag:
  3769                           	callstack 0
  3770                           
  3771 ;; *************** function _INTX_SET_HUNDLER_INTERRUPT *****************
  3772 ;; Defined at:
  3773 ;;		line 289 in file "MCAL_layer/Interrupt/interrupt_external.c"
  3774 ;; Parameters:    Size  Location     Type
  3775 ;;  int_obj         2    2[BANK0 ] PTR const struct .
  3776 ;;		 -> INT2_obj(6), INT1_obj(6), INT0_obj(6), 
  3777 ;; Auto vars:     Size  Location     Type
  3778 ;;  ret             1    0        unsigned char 
  3779 ;; Return value:  Size  Location     Type
  3780 ;;                  1    wreg      unsigned char 
  3781 ;; Registers used:
  3782 ;;		wreg, fsr2l, fsr2h, status,2, status,0, cstack
  3783 ;; Tracked objects:
  3784 ;;		On entry : 0/0
  3785 ;;		On exit  : 0/0
  3786 ;;		Unchanged: 0/0
  3787 ;; Data sizes:     COMRAM   BANK0   BANK1   BANK2   BANK3   BANK4   BANK5   BANK6   BANK7   BANK8   BANK9  BANK10  BANK1
      +1  BANK12  BANK13  BANK14  BANK15
  3788 ;;      Params:         0       2       0       0       0       0       0       0       0       0       0       0       
      +0       0       0       0       0
  3789 ;;      Locals:         0       0       0       0       0       0       0       0       0       0       0       0       
      +0       0       0       0       0
  3790 ;;      Temps:          0       2       0       0       0       0       0       0       0       0       0       0       
      +0       0       0       0       0
  3791 ;;      Totals:         0       4       0       0       0       0       0       0       0       0       0       0       
      +0       0       0       0       0
  3792 ;;Total ram usage:        4 bytes
  3793 ;; Hardware stack levels used: 1
  3794 ;; Hardware stack levels required when called: 7
  3795 ;; This function calls:
  3796 ;;		_INT0_SET_HUNDLER_INTERRUPT
  3797 ;;		_INT1_SET_HUNDLER_INTERRUPT
  3798 ;;		_INT2_SET_HUNDLER_INTERRUPT
  3799 ;; This function is called by:
  3800 ;;		_Interrupt_INTX_intialize
  3801 ;; This function uses a non-reentrant model
  3802 ;;
  3803                           
  3804                           	psect	text20
  3805   001E0A                     __ptext20:
  3806                           	callstack 0
  3807   001E0A                     _INTX_SET_HUNDLER_INTERRUPT:
  3808                           	callstack 21
  3809   001E0A                     
  3810                           ;MCAL_layer/Interrupt/interrupt_external.c: 291:     if(((void*)0) == int_obj){
  3811   001E0A  0100               	movlb	0	; () banked
  3812   001E0C  51C3               	movf	INTX_SET_HUNDLER_INTERRUPT@int_obj& (0+255),w,b
  3813   001E0E  11C4               	iorwf	(INTX_SET_HUNDLER_INTERRUPT@int_obj+1)& (0+255),w,b
  3814   001E10  A4D8               	btfss	status,2,c
  3815   001E12  EF0D  F00F         	goto	u3711
  3816   001E16  EF0F  F00F         	goto	u3710
  3817   001E1A                     u3711:
  3818   001E1A  EF35  F00F         	goto	l4353
  3819   001E1E                     u3710:
  3820   001E1E                     l4337:
  3821                           
  3822                           ; BSR set to: 0
  3823                           ;MCAL_layer/Interrupt/interrupt_external.c: 293:     }
  3824   001E1E  EF54  F00F         	goto	l652
  3825   001E22                     l4339:
  3826                           
  3827                           ; BSR set to: 0
  3828                           ;MCAL_layer/Interrupt/interrupt_external.c: 297:                 INT0_SET_HUNDLER_INTERR
      +                          UPT(int_obj->externalfunction);
  3829   001E22  C0C3  FFD9         	movff	INTX_SET_HUNDLER_INTERRUPT@int_obj,fsr2l
  3830   001E26  C0C4  FFDA         	movff	INTX_SET_HUNDLER_INTERRUPT@int_obj+1,fsr2h
  3831   001E2A  CFDE F0C1          	movff	postinc2,INT0_SET_HUNDLER_INTERRUPT@interrupt_hunder
  3832   001E2E  CFDD F0C2          	movff	postdec2,INT0_SET_HUNDLER_INTERRUPT@interrupt_hunder+1
  3833   001E32  EC4D  F014         	call	_INT0_SET_HUNDLER_INTERRUPT	;wreg free
  3834   001E36                     l4341:
  3835                           
  3836                           ;MCAL_layer/Interrupt/interrupt_external.c: 299:                 break;
  3837   001E36  EF54  F00F         	goto	l652
  3838   001E3A                     l4343:
  3839                           
  3840                           ; BSR set to: 0
  3841                           ;MCAL_layer/Interrupt/interrupt_external.c: 301:                 INT1_SET_HUNDLER_INTERR
      +                          UPT(int_obj->externalfunction);
  3842   001E3A  C0C3  FFD9         	movff	INTX_SET_HUNDLER_INTERRUPT@int_obj,fsr2l
  3843   001E3E  C0C4  FFDA         	movff	INTX_SET_HUNDLER_INTERRUPT@int_obj+1,fsr2h
  3844   001E42  CFDE F0C1          	movff	postinc2,INT1_SET_HUNDLER_INTERRUPT@interrupt_hunder
  3845   001E46  CFDD F0C2          	movff	postdec2,INT1_SET_HUNDLER_INTERRUPT@interrupt_hunder+1
  3846   001E4A  EC3E  F014         	call	_INT1_SET_HUNDLER_INTERRUPT	;wreg free
  3847   001E4E  EF1B  F00F         	goto	l4341
  3848   001E52                     l4347:
  3849                           
  3850                           ; BSR set to: 0
  3851                           ;MCAL_layer/Interrupt/interrupt_external.c: 305:                 INT2_SET_HUNDLER_INTERR
      +                          UPT(int_obj->externalfunction);
  3852   001E52  C0C3  FFD9         	movff	INTX_SET_HUNDLER_INTERRUPT@int_obj,fsr2l
  3853   001E56  C0C4  FFDA         	movff	INTX_SET_HUNDLER_INTERRUPT@int_obj+1,fsr2h
  3854   001E5A  CFDE F0C1          	movff	postinc2,INT2_SET_HUNDLER_INTERRUPT@interrupt_hunder
  3855   001E5E  CFDD F0C2          	movff	postdec2,INT2_SET_HUNDLER_INTERRUPT@interrupt_hunder+1
  3856   001E62  EC2F  F014         	call	_INT2_SET_HUNDLER_INTERRUPT	;wreg free
  3857   001E66  EF1B  F00F         	goto	l4341
  3858   001E6A                     l4353:
  3859                           
  3860                           ; BSR set to: 0
  3861   001E6A  EE20 F002          	lfsr	2,2
  3862   001E6E  51C3               	movf	INTX_SET_HUNDLER_INTERRUPT@int_obj& (0+255),w,b
  3863   001E70  26D9               	addwf	fsr2l,f,c
  3864   001E72  51C4               	movf	(INTX_SET_HUNDLER_INTERRUPT@int_obj+1)& (0+255),w,b
  3865   001E74  22DA               	addwfc	fsr2h,f,c
  3866   001E76  50DF               	movf	indf2,w,c
  3867   001E78  6FC5               	movwf	??_INTX_SET_HUNDLER_INTERRUPT& (0+255),b
  3868   001E7A  6BC6               	clrf	(??_INTX_SET_HUNDLER_INTERRUPT+1)& (0+255),b
  3869                           
  3870                           ; Switch on 2 bytes has been partitioned into a top level switch of size 1, and 1 sub-sw
      +                          itches
  3871                           ; Switch size 1, requested type "simple"
  3872                           ; Number of cases is 1, Range of values is 0 to 0
  3873                           ; switch strategies available:
  3874                           ; Name         Instructions Cycles
  3875                           ; simple_byte            4     3 (average)
  3876                           ;	Chosen strategy is simple_byte
  3877   001E7C  51C6               	movf	(??_INTX_SET_HUNDLER_INTERRUPT+1)& (0+255),w,b
  3878   001E7E  0A00               	xorlw	0	; case 0
  3879   001E80  B4D8               	btfsc	status,2,c
  3880   001E82  EF45  F00F         	goto	l5131
  3881   001E86  EF0F  F00F         	goto	l4337
  3882   001E8A                     l5131:
  3883                           
  3884                           ; BSR set to: 0
  3885                           ; Switch size 1, requested type "simple"
  3886                           ; Number of cases is 3, Range of values is 0 to 2
  3887                           ; switch strategies available:
  3888                           ; Name         Instructions Cycles
  3889                           ; simple_byte           10     6 (average)
  3890                           ;	Chosen strategy is simple_byte
  3891   001E8A  51C5               	movf	??_INTX_SET_HUNDLER_INTERRUPT& (0+255),w,b
  3892   001E8C  0A00               	xorlw	0	; case 0
  3893   001E8E  B4D8               	btfsc	status,2,c
  3894   001E90  EF11  F00F         	goto	l4339
  3895   001E94  0A01               	xorlw	1	; case 1
  3896   001E96  B4D8               	btfsc	status,2,c
  3897   001E98  EF1D  F00F         	goto	l4343
  3898   001E9C  0A03               	xorlw	3	; case 2
  3899   001E9E  B4D8               	btfsc	status,2,c
  3900   001EA0  EF29  F00F         	goto	l4347
  3901   001EA4  EF0F  F00F         	goto	l4337
  3902   001EA8                     l652:
  3903   001EA8  0012               	return		;funcret
  3904   001EAA                     __end_of_INTX_SET_HUNDLER_INTERRUPT:
  3905                           	callstack 0
  3906                           
  3907 ;; *************** function _INT2_SET_HUNDLER_INTERRUPT *****************
  3908 ;; Defined at:
  3909 ;;		line 282 in file "MCAL_layer/Interrupt/interrupt_external.c"
  3910 ;; Parameters:    Size  Location     Type
  3911 ;;  interrupt_hu    2    0[BANK0 ] PTR FTN()void 
  3912 ;;		 -> burrun2_interrupt(1), burrun1_interrupt(1), burrun0_interrupt(1), 
  3913 ;; Auto vars:     Size  Location     Type
  3914 ;;  ret             1    0        unsigned char 
  3915 ;; Return value:  Size  Location     Type
  3916 ;;                  1    wreg      unsigned char 
  3917 ;; Registers used:
  3918 ;;		wreg, status,2, status,0
  3919 ;; Tracked objects:
  3920 ;;		On entry : 0/0
  3921 ;;		On exit  : 0/0
  3922 ;;		Unchanged: 0/0
  3923 ;; Data sizes:     COMRAM   BANK0   BANK1   BANK2   BANK3   BANK4   BANK5   BANK6   BANK7   BANK8   BANK9  BANK10  BANK1
      +1  BANK12  BANK13  BANK14  BANK15
  3924 ;;      Params:         0       2       0       0       0       0       0       0       0       0       0       0       
      +0       0       0       0       0
  3925 ;;      Locals:         0       0       0       0       0       0       0       0       0       0       0       0       
      +0       0       0       0       0
  3926 ;;      Temps:          0       0       0       0       0       0       0       0       0       0       0       0       
      +0       0       0       0       0
  3927 ;;      Totals:         0       2       0       0       0       0       0       0       0       0       0       0       
      +0       0       0       0       0
  3928 ;;Total ram usage:        2 bytes
  3929 ;; Hardware stack levels used: 1
  3930 ;; Hardware stack levels required when called: 6
  3931 ;; This function calls:
  3932 ;;		Nothing
  3933 ;; This function is called by:
  3934 ;;		_INTX_SET_HUNDLER_INTERRUPT
  3935 ;; This function uses a non-reentrant model
  3936 ;;
  3937                           
  3938                           	psect	text21
  3939   00285E                     __ptext21:
  3940                           	callstack 0
  3941   00285E                     _INT2_SET_HUNDLER_INTERRUPT:
  3942                           	callstack 21
  3943   00285E                     
  3944                           ;MCAL_layer/Interrupt/interrupt_external.c: 284:     if(((void*)0) == interrupt_hunder){
  3945   00285E  0100               	movlb	0	; () banked
  3946   002860  51C1               	movf	INT2_SET_HUNDLER_INTERRUPT@interrupt_hunder& (0+255),w,b
  3947   002862  11C2               	iorwf	(INT2_SET_HUNDLER_INTERRUPT@interrupt_hunder+1)& (0+255),w,b
  3948   002864  A4D8               	btfss	status,2,c
  3949   002866  EF37  F014         	goto	u3541
  3950   00286A  EF39  F014         	goto	u3540
  3951   00286E                     u3541:
  3952   00286E  EF39  F014         	goto	l4175
  3953   002872                     u3540:
  3954   002872                     l4175:
  3955                           
  3956                           ; BSR set to: 0
  3957                           ;MCAL_layer/Interrupt/interrupt_external.c: 287:     INT2_HUNDLER_INTERRUPT = interrupt_
      +                          hunder;
  3958   002872  C0C1  F038         	movff	INT2_SET_HUNDLER_INTERRUPT@interrupt_hunder,_INT2_HUNDLER_INTERRUPT
  3959   002876  C0C2  F039         	movff	INT2_SET_HUNDLER_INTERRUPT@interrupt_hunder+1,_INT2_HUNDLER_INTERRUPT+1
  3960   00287A                     
  3961                           ; BSR set to: 0
  3962   00287A  0012               	return		;funcret
  3963   00287C                     __end_of_INT2_SET_HUNDLER_INTERRUPT:
  3964                           	callstack 0
  3965                           
  3966 ;; *************** function _INT1_SET_HUNDLER_INTERRUPT *****************
  3967 ;; Defined at:
  3968 ;;		line 275 in file "MCAL_layer/Interrupt/interrupt_external.c"
  3969 ;; Parameters:    Size  Location     Type
  3970 ;;  interrupt_hu    2    0[BANK0 ] PTR FTN()void 
  3971 ;;		 -> burrun2_interrupt(1), burrun1_interrupt(1), burrun0_interrupt(1), 
  3972 ;; Auto vars:     Size  Location     Type
  3973 ;;  ret             1    0        unsigned char 
  3974 ;; Return value:  Size  Location     Type
  3975 ;;                  1    wreg      unsigned char 
  3976 ;; Registers used:
  3977 ;;		wreg, status,2, status,0
  3978 ;; Tracked objects:
  3979 ;;		On entry : 0/0
  3980 ;;		On exit  : 0/0
  3981 ;;		Unchanged: 0/0
  3982 ;; Data sizes:     COMRAM   BANK0   BANK1   BANK2   BANK3   BANK4   BANK5   BANK6   BANK7   BANK8   BANK9  BANK10  BANK1
      +1  BANK12  BANK13  BANK14  BANK15
  3983 ;;      Params:         0       2       0       0       0       0       0       0       0       0       0       0       
      +0       0       0       0       0
  3984 ;;      Locals:         0       0       0       0       0       0       0       0       0       0       0       0       
      +0       0       0       0       0
  3985 ;;      Temps:          0       0       0       0       0       0       0       0       0       0       0       0       
      +0       0       0       0       0
  3986 ;;      Totals:         0       2       0       0       0       0       0       0       0       0       0       0       
      +0       0       0       0       0
  3987 ;;Total ram usage:        2 bytes
  3988 ;; Hardware stack levels used: 1
  3989 ;; Hardware stack levels required when called: 6
  3990 ;; This function calls:
  3991 ;;		Nothing
  3992 ;; This function is called by:
  3993 ;;		_INTX_SET_HUNDLER_INTERRUPT
  3994 ;; This function uses a non-reentrant model
  3995 ;;
  3996                           
  3997                           	psect	text22
  3998   00287C                     __ptext22:
  3999                           	callstack 0
  4000   00287C                     _INT1_SET_HUNDLER_INTERRUPT:
  4001                           	callstack 21
  4002   00287C                     
  4003                           ;MCAL_layer/Interrupt/interrupt_external.c: 277:     if(((void*)0) == interrupt_hunder){
  4004   00287C  0100               	movlb	0	; () banked
  4005   00287E  51C1               	movf	INT1_SET_HUNDLER_INTERRUPT@interrupt_hunder& (0+255),w,b
  4006   002880  11C2               	iorwf	(INT1_SET_HUNDLER_INTERRUPT@interrupt_hunder+1)& (0+255),w,b
  4007   002882  A4D8               	btfss	status,2,c
  4008   002884  EF46  F014         	goto	u3531
  4009   002888  EF48  F014         	goto	u3530
  4010   00288C                     u3531:
  4011   00288C  EF48  F014         	goto	l4167
  4012   002890                     u3530:
  4013   002890                     l4167:
  4014                           
  4015                           ; BSR set to: 0
  4016                           ;MCAL_layer/Interrupt/interrupt_external.c: 280:     INT1_HUNDLER_INTERRUPT = interrupt_
      +                          hunder;
  4017   002890  C0C1  F03A         	movff	INT1_SET_HUNDLER_INTERRUPT@interrupt_hunder,_INT1_HUNDLER_INTERRUPT
  4018   002894  C0C2  F03B         	movff	INT1_SET_HUNDLER_INTERRUPT@interrupt_hunder+1,_INT1_HUNDLER_INTERRUPT+1
  4019   002898                     
  4020                           ; BSR set to: 0
  4021   002898  0012               	return		;funcret
  4022   00289A                     __end_of_INT1_SET_HUNDLER_INTERRUPT:
  4023                           	callstack 0
  4024                           
  4025 ;; *************** function _INT0_SET_HUNDLER_INTERRUPT *****************
  4026 ;; Defined at:
  4027 ;;		line 267 in file "MCAL_layer/Interrupt/interrupt_external.c"
  4028 ;; Parameters:    Size  Location     Type
  4029 ;;  interrupt_hu    2    0[BANK0 ] PTR FTN()void 
  4030 ;;		 -> burrun2_interrupt(1), burrun1_interrupt(1), burrun0_interrupt(1), 
  4031 ;; Auto vars:     Size  Location     Type
  4032 ;;  ret             1    0        unsigned char 
  4033 ;; Return value:  Size  Location     Type
  4034 ;;                  1    wreg      unsigned char 
  4035 ;; Registers used:
  4036 ;;		wreg, status,2, status,0
  4037 ;; Tracked objects:
  4038 ;;		On entry : 0/0
  4039 ;;		On exit  : 0/0
  4040 ;;		Unchanged: 0/0
  4041 ;; Data sizes:     COMRAM   BANK0   BANK1   BANK2   BANK3   BANK4   BANK5   BANK6   BANK7   BANK8   BANK9  BANK10  BANK1
      +1  BANK12  BANK13  BANK14  BANK15
  4042 ;;      Params:         0       2       0       0       0       0       0       0       0       0       0       0       
      +0       0       0       0       0
  4043 ;;      Locals:         0       0       0       0       0       0       0       0       0       0       0       0       
      +0       0       0       0       0
  4044 ;;      Temps:          0       0       0       0       0       0       0       0       0       0       0       0       
      +0       0       0       0       0
  4045 ;;      Totals:         0       2       0       0       0       0       0       0       0       0       0       0       
      +0       0       0       0       0
  4046 ;;Total ram usage:        2 bytes
  4047 ;; Hardware stack levels used: 1
  4048 ;; Hardware stack levels required when called: 6
  4049 ;; This function calls:
  4050 ;;		Nothing
  4051 ;; This function is called by:
  4052 ;;		_INTX_SET_HUNDLER_INTERRUPT
  4053 ;; This function uses a non-reentrant model
  4054 ;;
  4055                           
  4056                           	psect	text23
  4057   00289A                     __ptext23:
  4058                           	callstack 0
  4059   00289A                     _INT0_SET_HUNDLER_INTERRUPT:
  4060                           	callstack 21
  4061   00289A                     
  4062                           ;MCAL_layer/Interrupt/interrupt_external.c: 269:     if(((void*)0) == interrupt_hunder){
  4063   00289A  0100               	movlb	0	; () banked
  4064   00289C  51C1               	movf	INT0_SET_HUNDLER_INTERRUPT@interrupt_hunder& (0+255),w,b
  4065   00289E  11C2               	iorwf	(INT0_SET_HUNDLER_INTERRUPT@interrupt_hunder+1)& (0+255),w,b
  4066   0028A0  A4D8               	btfss	status,2,c
  4067   0028A2  EF55  F014         	goto	u3521
  4068   0028A6  EF57  F014         	goto	u3520
  4069   0028AA                     u3521:
  4070   0028AA  EF57  F014         	goto	l4159
  4071   0028AE                     u3520:
  4072   0028AE                     l4159:
  4073                           
  4074                           ; BSR set to: 0
  4075                           ;MCAL_layer/Interrupt/interrupt_external.c: 272:    INT0_HUNDLER_INTERRUPT = interrupt_h
      +                          under;
  4076   0028AE  C0C1  F03C         	movff	INT0_SET_HUNDLER_INTERRUPT@interrupt_hunder,_INT0_HUNDLER_INTERRUPT
  4077   0028B2  C0C2  F03D         	movff	INT0_SET_HUNDLER_INTERRUPT@interrupt_hunder+1,_INT0_HUNDLER_INTERRUPT+1
  4078   0028B6                     
  4079                           ; BSR set to: 0
  4080   0028B6  0012               	return		;funcret
  4081   0028B8                     __end_of_INT0_SET_HUNDLER_INTERRUPT:
  4082                           	callstack 0
  4083                           
  4084 ;; *************** function _EEPROM_Write_Data *****************
  4085 ;; Defined at:
  4086 ;;		line 14 in file "MCAL_layer/EEPROM/EEPROM.c"
  4087 ;; Parameters:    Size  Location     Type
  4088 ;;  addrees         2    0[BANK0 ] unsigned short 
  4089 ;;  data            1    2[BANK0 ] unsigned char 
  4090 ;; Auto vars:     Size  Location     Type
  4091 ;;  global_iterr    1   34[COMRAM] unsigned char 
  4092 ;;  ret             1    0        unsigned char 
  4093 ;; Return value:  Size  Location     Type
  4094 ;;                  1    wreg      unsigned char 
  4095 ;; Registers used:
  4096 ;;		wreg, status,2, status,0
  4097 ;; Tracked objects:
  4098 ;;		On entry : 0/0
  4099 ;;		On exit  : 0/0
  4100 ;;		Unchanged: 0/0
  4101 ;; Data sizes:     COMRAM   BANK0   BANK1   BANK2   BANK3   BANK4   BANK5   BANK6   BANK7   BANK8   BANK9  BANK10  BANK1
      +1  BANK12  BANK13  BANK14  BANK15
  4102 ;;      Params:         0       3       0       0       0       0       0       0       0       0       0       0       
      +0       0       0       0       0
  4103 ;;      Locals:         1       0       0       0       0       0       0       0       0       0       0       0       
      +0       0       0       0       0
  4104 ;;      Temps:          0       0       0       0       0       0       0       0       0       0       0       0       
      +0       0       0       0       0
  4105 ;;      Totals:         1       3       0       0       0       0       0       0       0       0       0       0       
      +0       0       0       0       0
  4106 ;;Total ram usage:        4 bytes
  4107 ;; Hardware stack levels used: 1
  4108 ;; Hardware stack levels required when called: 6
  4109 ;; This function calls:
  4110 ;;		Nothing
  4111 ;; This function is called by:
  4112 ;;		_main
  4113 ;; This function uses a non-reentrant model
  4114 ;;
  4115                           
  4116                           	psect	text24
  4117   00272E                     __ptext24:
  4118                           	callstack 0
  4119   00272E                     _EEPROM_Write_Data:
  4120                           	callstack 24
  4121   00272E                     
  4122                           ;MCAL_layer/EEPROM/EEPROM.c: 16:      uint8 global_iterrupr_status = INTCONbits.GIE;
  4123   00272E  0E00               	movlw	0
  4124   002730  BEF2               	btfsc	242,7,c	;volatile
  4125   002732  0E01               	movlw	1
  4126   002734  6E23               	movwf	EEPROM_Write_Data@global_iterrupr_status^0,c
  4127   002736                     
  4128                           ;MCAL_layer/EEPROM/EEPROM.c: 18:         EEADRH = (uint8)((addrees >> 8) & 0x03);
  4129   002736  0100               	movlb	0	; () banked
  4130   002738  51C2               	movf	(EEPROM_Write_Data@addrees+1)& (0+255),w,b
  4131   00273A  0B03               	andlw	3
  4132   00273C  6EAA               	movwf	170,c	;volatile
  4133   00273E                     
  4134                           ; BSR set to: 0
  4135                           ;MCAL_layer/EEPROM/EEPROM.c: 19:         EEADR = (uint8)(addrees & 0xFF);
  4136   00273E  C0C1  FFA9         	movff	EEPROM_Write_Data@addrees,4009	;volatile
  4137   002742                     
  4138                           ; BSR set to: 0
  4139                           ;MCAL_layer/EEPROM/EEPROM.c: 20:         EEDATA = data;
  4140   002742  C0C3  FFA8         	movff	EEPROM_Write_Data@data,4008	;volatile
  4141   002746                     
  4142                           ; BSR set to: 0
  4143                           ;MCAL_layer/EEPROM/EEPROM.c: 22:         (EECON1bits.EEPGD = 0);
  4144   002746  9EA6               	bcf	166,7,c	;volsfr
  4145   002748                     
  4146                           ; BSR set to: 0
  4147                           ;MCAL_layer/EEPROM/EEPROM.c: 23:         (EECON1bits.CFGS = 0);
  4148   002748  9CA6               	bcf	166,6,c	;volsfr
  4149   00274A                     
  4150                           ; BSR set to: 0
  4151                           ;MCAL_layer/EEPROM/EEPROM.c: 25:         (EECON1bits.WREN = 1);
  4152   00274A  84A6               	bsf	166,2,c	;volsfr
  4153   00274C                     
  4154                           ; BSR set to: 0
  4155                           ;MCAL_layer/EEPROM/EEPROM.c: 29:         (INTCONbits.GIE = 0);
  4156   00274C  9EF2               	bcf	242,7,c	;volatile
  4157   00274E                     
  4158                           ; BSR set to: 0
  4159                           ;MCAL_layer/EEPROM/EEPROM.c: 31:         EECON2 = 0x55;
  4160   00274E  0E55               	movlw	85
  4161   002750  6EA7               	movwf	167,c	;volsfr
  4162   002752                     
  4163                           ; BSR set to: 0
  4164                           ;MCAL_layer/EEPROM/EEPROM.c: 32:         EECON2 = 0xAA;
  4165   002752  0EAA               	movlw	170
  4166   002754  6EA7               	movwf	167,c	;volsfr
  4167   002756                     
  4168                           ; BSR set to: 0
  4169                           ;MCAL_layer/EEPROM/EEPROM.c: 34:         (EECON1bits.WR = 1);
  4170   002756  82A6               	bsf	166,1,c	;volsfr
  4171   002758                     l349:
  4172   002758  B2A6               	btfsc	166,1,c	;volsfr
  4173   00275A  EFB1  F013         	goto	u3921
  4174   00275E  EFB3  F013         	goto	u3920
  4175   002762                     u3921:
  4176   002762  EFAC  F013         	goto	l349
  4177   002766                     u3920:
  4178   002766                     
  4179                           ;MCAL_layer/EEPROM/EEPROM.c: 37:         (EECON1bits.WREN = 0);
  4180   002766  94A6               	bcf	166,2,c	;volsfr
  4181                           
  4182                           ;MCAL_layer/EEPROM/EEPROM.c: 38:         INTCONbits.GIE = global_iterrupr_status;
  4183   002768  B023               	btfsc	EEPROM_Write_Data@global_iterrupr_status^0,0,c
  4184   00276A  D002               	bra	u3935
  4185   00276C  9EF2               	bcf	242,7,c	;volatile
  4186   00276E  D001               	bra	u3936
  4187   002770                     u3935:
  4188   002770  8EF2               	bsf	242,7,c	;volatile
  4189   002772                     u3936:
  4190   002772                     
  4191                           ;MCAL_layer/EEPROM/EEPROM.c: 39:     return ret;
  4192   002772  0E01               	movlw	1
  4193   002774  0012               	return		;funcret
  4194   002776                     __end_of_EEPROM_Write_Data:
  4195                           	callstack 0
  4196                           
  4197 ;; *************** function _InterruptManager *****************
  4198 ;; Defined at:
  4199 ;;		line 31 in file "MCAL_layer/Interrupt/interrupt_manager.c"
  4200 ;; Parameters:    Size  Location     Type
  4201 ;;		None
  4202 ;; Auto vars:     Size  Location     Type
  4203 ;;		None
  4204 ;; Return value:  Size  Location     Type
  4205 ;;                  1    wreg      void 
  4206 ;; Registers used:
  4207 ;;		wreg, fsr1l, fsr1h, fsr2l, fsr2h, status,2, status,0, pcl, pclath, pclatu, tosl, prodl, prodh, cstack
  4208 ;; Tracked objects:
  4209 ;;		On entry : 0/0
  4210 ;;		On exit  : 0/0
  4211 ;;		Unchanged: 0/0
  4212 ;; Data sizes:     COMRAM   BANK0   BANK1   BANK2   BANK3   BANK4   BANK5   BANK6   BANK7   BANK8   BANK9  BANK10  BANK1
      +1  BANK12  BANK13  BANK14  BANK15
  4213 ;;      Params:         0       0       0       0       0       0       0       0       0       0       0       0       
      +0       0       0       0       0
  4214 ;;      Locals:         0       0       0       0       0       0       0       0       0       0       0       0       
      +0       0       0       0       0
  4215 ;;      Temps:          8       0       0       0       0       0       0       0       0       0       0       0       
      +0       0       0       0       0
  4216 ;;      Totals:         8       0       0       0       0       0       0       0       0       0       0       0       
      +0       0       0       0       0
  4217 ;;Total ram usage:        8 bytes
  4218 ;; Hardware stack levels used: 1
  4219 ;; Hardware stack levels required when called: 5
  4220 ;; This function calls:
  4221 ;;		_INT0_ISR
  4222 ;;		_INT1_ISR
  4223 ;;		_INT2_ISR
  4224 ;;		_RB4_ISR
  4225 ;; This function is called by:
  4226 ;;		Interrupt level 2
  4227 ;; This function uses a non-reentrant model
  4228 ;;
  4229                           
  4230                           	psect	intcode
  4231   000008                     __pintcode:
  4232                           	callstack 0
  4233   000008                     _InterruptManager:
  4234                           	callstack 20
  4235                           
  4236                           ;incstack = 0
  4237   000008  825D               	bsf	int$flags,1,c	;set compiler interrupt flag (level 2)
  4238   00000A  ED53  F00A         	call	int_func,f	;refresh shadow registers
  4239                           
  4240                           	psect	intcode_body
  4241   0014A6                     __pintcode_body:
  4242                           	callstack 20
  4243   0014A6                     int_func:
  4244                           	callstack 20
  4245   0014A6  0006               	pop		; remove dummy address from shadow register refresh
  4246   0014A8  CFFA F01B          	movff	pclath,??_InterruptManager
  4247   0014AC  CFFB F01C          	movff	pclatu,??_InterruptManager+1
  4248   0014B0  CFE1 F01D          	movff	fsr1l,??_InterruptManager+2
  4249   0014B4  CFE2 F01E          	movff	fsr1h,??_InterruptManager+3
  4250   0014B8  CFD9 F01F          	movff	fsr2l,??_InterruptManager+4
  4251   0014BC  CFDA F020          	movff	fsr2h,??_InterruptManager+5
  4252   0014C0  CFF3 F021          	movff	prodl,??_InterruptManager+6
  4253   0014C4  CFF4 F022          	movff	prodh,??_InterruptManager+7
  4254   0014C8                     
  4255                           ;MCAL_layer/Interrupt/interrupt_manager.c: 33:  if((0x01 == INTCONbits.INT0E) && (0x01 =
      +                          = INTCONbits.INT0F)){
  4256   0014C8  A8F2               	btfss	242,4,c	;volatile
  4257   0014CA  EF69  F00A         	goto	i2u323_41
  4258   0014CE  EF6B  F00A         	goto	i2u323_40
  4259   0014D2                     i2u323_41:
  4260   0014D2  EF74  F00A         	goto	i2l735
  4261   0014D6                     i2u323_40:
  4262   0014D6  A2F2               	btfss	242,1,c	;volatile
  4263   0014D8  EF70  F00A         	goto	i2u324_41
  4264   0014DC  EF72  F00A         	goto	i2u324_40
  4265   0014E0                     i2u324_41:
  4266   0014E0  EF74  F00A         	goto	i2l735
  4267   0014E4                     i2u324_40:
  4268   0014E4                     
  4269                           ;MCAL_layer/Interrupt/interrupt_manager.c: 34:         INT0_ISR();
  4270   0014E4  EC78  F014         	call	_INT0_ISR	;wreg free
  4271   0014E8                     i2l735:
  4272                           
  4273                           ;MCAL_layer/Interrupt/interrupt_manager.c: 37:     if((0x01 == INTCON3bits.INT1E) && (0x
      +                          01 == INTCON3bits.INT1F)){
  4274   0014E8  A6F0               	btfss	240,3,c	;volatile
  4275   0014EA  EF79  F00A         	goto	i2u325_41
  4276   0014EE  EF7B  F00A         	goto	i2u325_40
  4277   0014F2                     i2u325_41:
  4278   0014F2  EF84  F00A         	goto	i2l737
  4279   0014F6                     i2u325_40:
  4280   0014F6  A0F0               	btfss	240,0,c	;volatile
  4281   0014F8  EF80  F00A         	goto	i2u326_41
  4282   0014FC  EF82  F00A         	goto	i2u326_40
  4283   001500                     i2u326_41:
  4284   001500  EF84  F00A         	goto	i2l737
  4285   001504                     i2u326_40:
  4286   001504                     
  4287                           ;MCAL_layer/Interrupt/interrupt_manager.c: 38:         INT1_ISR();
  4288   001504  EC6A  F014         	call	_INT1_ISR	;wreg free
  4289   001508                     i2l737:
  4290                           
  4291                           ;MCAL_layer/Interrupt/interrupt_manager.c: 41:     if((0x01 == INTCON3bits.INT2E) && (0x
      +                          01 == INTCON3bits.INT2F)){
  4292   001508  A8F0               	btfss	240,4,c	;volatile
  4293   00150A  EF89  F00A         	goto	i2u327_41
  4294   00150E  EF8B  F00A         	goto	i2u327_40
  4295   001512                     i2u327_41:
  4296   001512  EF94  F00A         	goto	i2l739
  4297   001516                     i2u327_40:
  4298   001516  A2F0               	btfss	240,1,c	;volatile
  4299   001518  EF90  F00A         	goto	i2u328_41
  4300   00151C  EF92  F00A         	goto	i2u328_40
  4301   001520                     i2u328_41:
  4302   001520  EF94  F00A         	goto	i2l739
  4303   001524                     i2u328_40:
  4304   001524                     
  4305                           ;MCAL_layer/Interrupt/interrupt_manager.c: 42:         INT2_ISR();
  4306   001524  EC5C  F014         	call	_INT2_ISR	;wreg free
  4307   001528                     i2l739:
  4308                           
  4309                           ;MCAL_layer/Interrupt/interrupt_manager.c: 45:  if((0x01 == INTCONbits.RBIE) && (0x01 ==
      +                           INTCONbits.RBIF) &&
  4310   001528  A6F2               	btfss	242,3,c	;volatile
  4311   00152A  EF99  F00A         	goto	i2u329_41
  4312   00152E  EF9B  F00A         	goto	i2u329_40
  4313   001532                     i2u329_41:
  4314   001532  EFB9  F00A         	goto	i2l741
  4315   001536                     i2u329_40:
  4316   001536  A0F2               	btfss	242,0,c	;volatile
  4317   001538  EFA0  F00A         	goto	i2u330_41
  4318   00153C  EFA2  F00A         	goto	i2u330_40
  4319   001540                     i2u330_41:
  4320   001540  EFB9  F00A         	goto	i2l741
  4321   001544                     i2u330_40:
  4322   001544  A881               	btfss	129,4,c	;volatile
  4323   001546  EFA7  F00A         	goto	i2u331_41
  4324   00154A  EFA9  F00A         	goto	i2u331_40
  4325   00154E                     i2u331_41:
  4326   00154E  EFB9  F00A         	goto	i2l741
  4327   001552                     i2u331_40:
  4328   001552  044C               	decf	_RB4_Flag^0,w,c	;volatile
  4329   001554  104D               	iorwf	(_RB4_Flag+1)^0,w,c	;volatile
  4330   001556  A4D8               	btfss	status,2,c
  4331   001558  EFB0  F00A         	goto	i2u332_41
  4332   00155C  EFB2  F00A         	goto	i2u332_40
  4333   001560                     i2u332_41:
  4334   001560  EFB9  F00A         	goto	i2l741
  4335   001564                     i2u332_40:
  4336   001564                     
  4337                           ;MCAL_layer/Interrupt/interrupt_manager.c: 46:        (PORTBbits.RB4 == 1) && (RB4_Flag 
      +                          == 1)){;MCAL_layer/Interrupt/interrupt_manager.c: 47:         RB4_Flag = 0;
  4338   001564  0E00               	movlw	0
  4339   001566  6E4D               	movwf	(_RB4_Flag+1)^0,c	;volatile
  4340   001568  0E00               	movlw	0
  4341   00156A  6E4C               	movwf	_RB4_Flag^0,c	;volatile
  4342   00156C                     
  4343                           ;MCAL_layer/Interrupt/interrupt_manager.c: 48:         RB4_ISR(0);
  4344   00156C  0E00               	movlw	0
  4345   00156E  ECBB  F013         	call	_RB4_ISR
  4346   001572                     i2l741:
  4347                           
  4348                           ;MCAL_layer/Interrupt/interrupt_manager.c: 51:     if((0x01 == INTCONbits.RBIE) && (0x01
      +                           == INTCONbits.RBIF) &&
  4349   001572  A6F2               	btfss	242,3,c	;volatile
  4350   001574  EFBE  F00A         	goto	i2u333_41
  4351   001578  EFC0  F00A         	goto	i2u333_40
  4352   00157C                     i2u333_41:
  4353   00157C  EFDE  F00A         	goto	i2l744
  4354   001580                     i2u333_40:
  4355   001580  A0F2               	btfss	242,0,c	;volatile
  4356   001582  EFC5  F00A         	goto	i2u334_41
  4357   001586  EFC7  F00A         	goto	i2u334_40
  4358   00158A                     i2u334_41:
  4359   00158A  EFDE  F00A         	goto	i2l744
  4360   00158E                     i2u334_40:
  4361   00158E  B881               	btfsc	129,4,c	;volatile
  4362   001590  EFCC  F00A         	goto	i2u335_41
  4363   001594  EFCE  F00A         	goto	i2u335_40
  4364   001598                     i2u335_41:
  4365   001598  EFDE  F00A         	goto	i2l744
  4366   00159C                     i2u335_40:
  4367   00159C  504C               	movf	_RB4_Flag^0,w,c	;volatile
  4368   00159E  104D               	iorwf	(_RB4_Flag+1)^0,w,c	;volatile
  4369   0015A0  A4D8               	btfss	status,2,c
  4370   0015A2  EFD5  F00A         	goto	i2u336_41
  4371   0015A6  EFD7  F00A         	goto	i2u336_40
  4372   0015AA                     i2u336_41:
  4373   0015AA  EFDE  F00A         	goto	i2l744
  4374   0015AE                     i2u336_40:
  4375   0015AE                     
  4376                           ;MCAL_layer/Interrupt/interrupt_manager.c: 52:        (PORTBbits.RB4 == 0) && (RB4_Flag 
      +                          == 0)){;MCAL_layer/Interrupt/interrupt_manager.c: 53:         RB4_Flag = 1;
  4377   0015AE  0E00               	movlw	0
  4378   0015B0  6E4D               	movwf	(_RB4_Flag+1)^0,c	;volatile
  4379   0015B2  0E01               	movlw	1
  4380   0015B4  6E4C               	movwf	_RB4_Flag^0,c	;volatile
  4381   0015B6                     
  4382                           ;MCAL_layer/Interrupt/interrupt_manager.c: 54:         RB4_ISR(1);
  4383   0015B6  0E01               	movlw	1
  4384   0015B8  ECBB  F013         	call	_RB4_ISR
  4385   0015BC                     i2l744:
  4386   0015BC  C022  FFF4         	movff	??_InterruptManager+7,prodh
  4387   0015C0  C021  FFF3         	movff	??_InterruptManager+6,prodl
  4388   0015C4  C020  FFDA         	movff	??_InterruptManager+5,fsr2h
  4389   0015C8  C01F  FFD9         	movff	??_InterruptManager+4,fsr2l
  4390   0015CC  C01E  FFE2         	movff	??_InterruptManager+3,fsr1h
  4391   0015D0  C01D  FFE1         	movff	??_InterruptManager+2,fsr1l
  4392   0015D4  C01C  FFFB         	movff	??_InterruptManager+1,pclatu
  4393   0015D8  C01B  FFFA         	movff	??_InterruptManager,pclath
  4394   0015DC  925D               	bcf	int$flags,1,c	;clear compiler interrupt flag (level 2)
  4395   0015DE  0011               	retfie		f
  4396   0015E0                     __end_of_InterruptManager:
  4397                           	callstack 0
  4398                           
  4399 ;; *************** function _RB4_ISR *****************
  4400 ;; Defined at:
  4401 ;;		line 388 in file "MCAL_layer/Interrupt/interrupt_external.c"
  4402 ;; Parameters:    Size  Location     Type
  4403 ;;  RB4_Source      1    wreg     unsigned char 
  4404 ;; Auto vars:     Size  Location     Type
  4405 ;;  RB4_Source      1   25[COMRAM] unsigned char 
  4406 ;; Return value:  Size  Location     Type
  4407 ;;                  1    wreg      void 
  4408 ;; Registers used:
  4409 ;;		wreg, fsr1l, fsr1h, fsr2l, fsr2h, status,2, status,0, pcl, pclath, pclatu, tosl, prodl, prodh, cstack
  4410 ;; Tracked objects:
  4411 ;;		On entry : 0/0
  4412 ;;		On exit  : 0/0
  4413 ;;		Unchanged: 0/0
  4414 ;; Data sizes:     COMRAM   BANK0   BANK1   BANK2   BANK3   BANK4   BANK5   BANK6   BANK7   BANK8   BANK9  BANK10  BANK1
      +1  BANK12  BANK13  BANK14  BANK15
  4415 ;;      Params:         0       0       0       0       0       0       0       0       0       0       0       0       
      +0       0       0       0       0
  4416 ;;      Locals:         1       0       0       0       0       0       0       0       0       0       0       0       
      +0       0       0       0       0
  4417 ;;      Temps:          0       0       0       0       0       0       0       0       0       0       0       0       
      +0       0       0       0       0
  4418 ;;      Totals:         1       0       0       0       0       0       0       0       0       0       0       0       
      +0       0       0       0       0
  4419 ;;Total ram usage:        1 bytes
  4420 ;; Hardware stack levels used: 1
  4421 ;; Hardware stack levels required when called: 4
  4422 ;; This function calls:
  4423 ;;		NULL
  4424 ;;		_burrun3_interrupt
  4425 ;; This function is called by:
  4426 ;;		_InterruptManager
  4427 ;; This function uses a non-reentrant model
  4428 ;;
  4429                           
  4430                           	psect	text26
  4431   002776                     __ptext26:
  4432                           	callstack 0
  4433   002776                     _RB4_ISR:
  4434                           	callstack 20
  4435                           
  4436                           ;incstack = 0
  4437                           ;RB4_ISR@RB4_Source stored from wreg
  4438   002776  6E1A               	movwf	RB4_ISR@RB4_Source^0,c
  4439   002778                     
  4440                           ;MCAL_layer/Interrupt/interrupt_external.c: 390:     (INTCONbits.RBIF = 0);
  4441   002778  90F2               	bcf	242,0,c	;volatile
  4442   00277A                     
  4443                           ;MCAL_layer/Interrupt/interrupt_external.c: 393:     if(0 == RB4_Source){
  4444   00277A  501A               	movf	RB4_ISR@RB4_Source^0,w,c
  4445   00277C  A4D8               	btfss	status,2,c
  4446   00277E  EFC3  F013         	goto	i2u263_41
  4447   002782  EFC5  F013         	goto	i2u263_40
  4448   002786                     i2u263_41:
  4449   002786  EFDC  F013         	goto	i2l3549
  4450   00278A                     i2u263_40:
  4451   00278A                     
  4452                           ;MCAL_layer/Interrupt/interrupt_external.c: 394:         if(RB4_InterruptHandler_HIGH){ 
      +                          RB4_InterruptHandler_HIGH(); }
  4453   00278A  5034               	movf	_RB4_InterruptHandler_HIGH^0,w,c
  4454   00278C  1035               	iorwf	(_RB4_InterruptHandler_HIGH+1)^0,w,c
  4455   00278E  B4D8               	btfsc	status,2,c
  4456   002790  EFCC  F013         	goto	i2u264_41
  4457   002794  EFCE  F013         	goto	i2u264_40
  4458   002798                     i2u264_41:
  4459   002798  EFDC  F013         	goto	i2l680
  4460   00279C                     i2u264_40:
  4461   00279C  D802               	call	i2u265_48
  4462   00279E  EFDA  F013         	goto	i2u265_49
  4463   0027A2                     i2u265_48:
  4464   0027A2  0005               	push	
  4465   0027A4  6EFA               	movwf	pclath,c
  4466   0027A6  5034               	movf	_RB4_InterruptHandler_HIGH^0,w,c
  4467   0027A8  6EFD               	movwf	tosl,c
  4468   0027AA  5035               	movf	(_RB4_InterruptHandler_HIGH+1)^0,w,c
  4469   0027AC  6EFE               	movwf	tosh,c
  4470   0027AE  6AFF               	clrf	tosu,c
  4471   0027B0  50FA               	movf	pclath,w,c
  4472   0027B2  0012               	return		;indir
  4473   0027B4                     i2u265_49:
  4474   0027B4  EFDC  F013         	goto	i2l680
  4475   0027B8                     i2l3549:
  4476   0027B8                     i2l680:
  4477   0027B8  0012               	return		;funcret
  4478   0027BA                     __end_of_RB4_ISR:
  4479                           	callstack 0
  4480                           
  4481 ;; *************** function _burrun3_interrupt *****************
  4482 ;; Defined at:
  4483 ;;		line 195 in file "Password_safe.c"
  4484 ;; Parameters:    Size  Location     Type
  4485 ;;		None
  4486 ;; Auto vars:     Size  Location     Type
  4487 ;;		None
  4488 ;; Return value:  Size  Location     Type
  4489 ;;                  1    wreg      void 
  4490 ;; Registers used:
  4491 ;;		wreg, fsr1l, fsr1h, fsr2l, fsr2h, status,2, status,0, prodl, prodh, cstack
  4492 ;; Tracked objects:
  4493 ;;		On entry : 0/0
  4494 ;;		On exit  : 0/0
  4495 ;;		Unchanged: 0/0
  4496 ;; Data sizes:     COMRAM   BANK0   BANK1   BANK2   BANK3   BANK4   BANK5   BANK6   BANK7   BANK8   BANK9  BANK10  BANK1
      +1  BANK12  BANK13  BANK14  BANK15
  4497 ;;      Params:         0       0       0       0       0       0       0       0       0       0       0       0       
      +0       0       0       0       0
  4498 ;;      Locals:         0       0       0       0       0       0       0       0       0       0       0       0       
      +0       0       0       0       0
  4499 ;;      Temps:          4       0       0       0       0       0       0       0       0       0       0       0       
      +0       0       0       0       0
  4500 ;;      Totals:         4       0       0       0       0       0       0       0       0       0       0       0       
      +0       0       0       0       0
  4501 ;;Total ram usage:        4 bytes
  4502 ;; Hardware stack levels used: 1
  4503 ;; Hardware stack levels required when called: 3
  4504 ;; This function calls:
  4505 ;;		_EEPROM_Read_Data
  4506 ;;		_get_value_RBX_interrupt
  4507 ;;		i2_send_4_bit_char_data
  4508 ;; This function is called by:
  4509 ;;		_RB4_ISR
  4510 ;;		_RB5_ISR
  4511 ;;		_RB6_ISR
  4512 ;;		_RB7_ISR
  4513 ;; This function uses a non-reentrant model
  4514 ;;
  4515                           
  4516                           	psect	text27
  4517   001FC4                     __ptext27:
  4518                           	callstack 0
  4519   001FC4                     _burrun3_interrupt:
  4520                           	callstack 20
  4521   001FC4                     
  4522                           ;Password_safe.c: 196:     get_value_RBX_interrupt(&keypad, &RB_obj_1, &rd_value);
  4523   001FC4  0E4F               	movlw	low _keypad
  4524   001FC6  6E0B               	movwf	get_value_RBX_interrupt@keypad^0,c
  4525   001FC8  0E00               	movlw	high _keypad
  4526   001FCA  6E0C               	movwf	(get_value_RBX_interrupt@keypad+1)^0,c
  4527   001FCC  0EA9               	movlw	low _RB_obj_1
  4528   001FCE  6E0D               	movwf	get_value_RBX_interrupt@RBX^0,c
  4529   001FD0  0E00               	movlw	high _RB_obj_1
  4530   001FD2  6E0E               	movwf	(get_value_RBX_interrupt@RBX+1)^0,c
  4531   001FD4  0E41               	movlw	low _rd_value
  4532   001FD6  6E0F               	movwf	get_value_RBX_interrupt@value^0,c
  4533   001FD8  0E00               	movlw	high _rd_value
  4534   001FDA  6E10               	movwf	(get_value_RBX_interrupt@value+1)^0,c
  4535   001FDC  EC02  F00E         	call	_get_value_RBX_interrupt	;wreg free
  4536   001FE0                     
  4537                           ;Password_safe.c: 197:     send_4_bit_char_data(&lcd_4bit,'*');
  4538   001FE0  0E57               	movlw	low _lcd_4bit
  4539   001FE2  6E0F               	movwf	i2send_4_bit_char_data@lcd^0,c
  4540   001FE4  0E00               	movlw	high _lcd_4bit
  4541   001FE6  6E10               	movwf	(i2send_4_bit_char_data@lcd+1)^0,c
  4542   001FE8  0E2A               	movlw	42
  4543   001FEA  6E11               	movwf	i2send_4_bit_char_data@data^0,c
  4544   001FEC  EC19  F012         	call	i2_send_4_bit_char_data	;wreg free
  4545   001FF0                     
  4546                           ;Password_safe.c: 198:     EEPROM_Read_Data(0x0000 + cnt_pw, &val);
  4547   001FF0  C03E  F001         	movff	_cnt_pw,EEPROM_Read_Data@addrees
  4548   001FF4  6A02               	clrf	(EEPROM_Read_Data@addrees+1)^0,c
  4549   001FF6  0E40               	movlw	low _val
  4550   001FF8  6E03               	movwf	EEPROM_Read_Data@data^0,c
  4551   001FFA  0E00               	movlw	high _val
  4552   001FFC  6E04               	movwf	(EEPROM_Read_Data@data+1)^0,c
  4553   001FFE  ECFE  F013         	call	_EEPROM_Read_Data	;wreg free
  4554   002002                     
  4555                           ;Password_safe.c: 199:     _delay((unsigned long)((500)*(4000000UL/4000.0)));
  4556   002002  0E03               	movlw	3
  4557   002004  6E17               	movwf	(??_burrun3_interrupt+1)^0,c
  4558   002006  0E8A               	movlw	138
  4559   002008  6E16               	movwf	??_burrun3_interrupt^0,c
  4560   00200A  0E56               	movlw	86
  4561   00200C                     i2u429_47:
  4562   00200C  2EE8               	decfsz	wreg,f,c
  4563   00200E  D7FE               	bra	i2u429_47
  4564   002010  2E16               	decfsz	??_burrun3_interrupt^0,f,c
  4565   002012  D7FC               	bra	i2u429_47
  4566   002014  2E17               	decfsz	(??_burrun3_interrupt+1)^0,f,c
  4567   002016  D7FA               	bra	i2u429_47
  4568   002018                     
  4569                           ;Password_safe.c: 200:     if((rd_value - '0') != val)
  4570   002018  5040               	movf	_val^0,w,c	;volatile
  4571   00201A  6E16               	movwf	??_burrun3_interrupt^0,c
  4572   00201C  6A17               	clrf	(??_burrun3_interrupt+1)^0,c
  4573   00201E  0ED0               	movlw	208
  4574   002020  2441               	addwf	_rd_value^0,w,c	;volatile
  4575   002022  6E18               	movwf	(??_burrun3_interrupt+2)^0,c
  4576   002024  6A19               	clrf	(??_burrun3_interrupt+3)^0,c
  4577   002026  0EFF               	movlw	255
  4578   002028  2219               	addwfc	(??_burrun3_interrupt+3)^0,f,c
  4579   00202A  5016               	movf	??_burrun3_interrupt^0,w,c
  4580   00202C  1818               	xorwf	(??_burrun3_interrupt+2)^0,w,c
  4581   00202E  E109               	bnz	i2u240_40
  4582   002030  5017               	movf	(??_burrun3_interrupt+1)^0,w,c
  4583   002032  1819               	xorwf	(??_burrun3_interrupt+3)^0,w,c
  4584   002034  B4D8               	btfsc	status,2,c
  4585   002036  EF1F  F010         	goto	i2u240_41
  4586   00203A  EF21  F010         	goto	i2u240_40
  4587   00203E                     i2u240_41:
  4588   00203E  EF23  F010         	goto	i2l3383
  4589   002042                     i2u240_40:
  4590   002042                     
  4591                           ;Password_safe.c: 201:             psw_st = 0;
  4592   002042  0E00               	movlw	0
  4593   002044  6E4E               	movwf	_psw_st^0,c	;volatile
  4594   002046                     i2l3383:
  4595                           
  4596                           ;Password_safe.c: 202:     cnt_pw++;
  4597   002046  2A3E               	incf	_cnt_pw^0,f,c
  4598   002048  0012               	return		;funcret
  4599   00204A                     __end_of_burrun3_interrupt:
  4600                           	callstack 0
  4601                           
  4602 ;; *************** function _get_value_RBX_interrupt *****************
  4603 ;; Defined at:
  4604 ;;		line 80 in file "ECU_layer/keypad/ecu_keypad.c"
  4605 ;; Parameters:    Size  Location     Type
  4606 ;;  keypad          2   10[COMRAM] PTR const struct .
  4607 ;;		 -> keypad(8), 
  4608 ;;  RBX             2   12[COMRAM] PTR const struct .
  4609 ;;		 -> RB_obj_1(6), 
  4610 ;;  value           2   14[COMRAM] PTR unsigned char 
  4611 ;;		 -> rd_value(1), 
  4612 ;; Auto vars:     Size  Location     Type
  4613 ;;  cnt             1   20[COMRAM] unsigned char 
  4614 ;;  pin_row_st      1   19[COMRAM] enum E2968
  4615 ;;  ret             1    0        unsigned char 
  4616 ;; Return value:  Size  Location     Type
  4617 ;;                  1    wreg      unsigned char 
  4618 ;; Registers used:
  4619 ;;		wreg, fsr1l, fsr1h, fsr2l, fsr2h, status,2, status,0, prodl, prodh, cstack
  4620 ;; Tracked objects:
  4621 ;;		On entry : 0/0
  4622 ;;		On exit  : 0/0
  4623 ;;		Unchanged: 0/0
  4624 ;; Data sizes:     COMRAM   BANK0   BANK1   BANK2   BANK3   BANK4   BANK5   BANK6   BANK7   BANK8   BANK9  BANK10  BANK1
      +1  BANK12  BANK13  BANK14  BANK15
  4625 ;;      Params:         6       0       0       0       0       0       0       0       0       0       0       0       
      +0       0       0       0       0
  4626 ;;      Locals:         2       0       0       0       0       0       0       0       0       0       0       0       
      +0       0       0       0       0
  4627 ;;      Temps:          3       0       0       0       0       0       0       0       0       0       0       0       
      +0       0       0       0       0
  4628 ;;      Totals:        11       0       0       0       0       0       0       0       0       0       0       0       
      +0       0       0       0       0
  4629 ;;Total ram usage:       11 bytes
  4630 ;; Hardware stack levels used: 1
  4631 ;; Hardware stack levels required when called: 1
  4632 ;; This function calls:
  4633 ;;		_gpio_pin_read_logic
  4634 ;; This function is called by:
  4635 ;;		_burrun3_interrupt
  4636 ;; This function uses a non-reentrant model
  4637 ;;
  4638                           
  4639                           	psect	text28
  4640   001C04                     __ptext28:
  4641                           	callstack 0
  4642   001C04                     _get_value_RBX_interrupt:
  4643                           	callstack 21
  4644   001C04                     
  4645                           ;ECU_layer/keypad/ecu_keypad.c: 82:       Logic_t pin_row_st = LOW;
  4646   001C04  0E00               	movlw	0
  4647   001C06  6E14               	movwf	get_value_RBX_interrupt@pin_row_st^0,c
  4648   001C08                     
  4649                           ;ECU_layer/keypad/ecu_keypad.c: 83:     if(((void*)0) == keypad || ((void*)0) == value |
      +                          | ((void*)0) == RBX)
  4650   001C08  500B               	movf	get_value_RBX_interrupt@keypad^0,w,c
  4651   001C0A  100C               	iorwf	(get_value_RBX_interrupt@keypad+1)^0,w,c
  4652   001C0C  B4D8               	btfsc	status,2,c
  4653   001C0E  EF0B  F00E         	goto	i2u208_41
  4654   001C12  EF0D  F00E         	goto	i2u208_40
  4655   001C16                     i2u208_41:
  4656   001C16  EF1F  F00E         	goto	i2l3005
  4657   001C1A                     i2u208_40:
  4658   001C1A  500F               	movf	get_value_RBX_interrupt@value^0,w,c
  4659   001C1C  1010               	iorwf	(get_value_RBX_interrupt@value+1)^0,w,c
  4660   001C1E  B4D8               	btfsc	status,2,c
  4661   001C20  EF14  F00E         	goto	i2u209_41
  4662   001C24  EF16  F00E         	goto	i2u209_40
  4663   001C28                     i2u209_41:
  4664   001C28  EF1F  F00E         	goto	i2l3005
  4665   001C2C                     i2u209_40:
  4666   001C2C  500D               	movf	get_value_RBX_interrupt@RBX^0,w,c
  4667   001C2E  100E               	iorwf	(get_value_RBX_interrupt@RBX+1)^0,w,c
  4668   001C30  A4D8               	btfss	status,2,c
  4669   001C32  EF1D  F00E         	goto	i2u210_41
  4670   001C36  EF1F  F00E         	goto	i2u210_40
  4671   001C3A                     i2u210_41:
  4672   001C3A  EF21  F00E         	goto	i2l3007
  4673   001C3E                     i2u210_40:
  4674   001C3E                     i2l3005:
  4675   001C3E  EF5F  F00E         	goto	i2l145
  4676   001C42                     i2l3007:
  4677                           
  4678                           ;ECU_layer/keypad/ecu_keypad.c: 86:             for(uint8 cnt = 0; cnt < 4; cnt++)
  4679   001C42  0E00               	movlw	0
  4680   001C44  6E15               	movwf	get_value_RBX_interrupt@cnt^0,c
  4681   001C46                     i2l3013:
  4682   001C46  5015               	movf	get_value_RBX_interrupt@cnt^0,w,c
  4683   001C48  240B               	addwf	get_value_RBX_interrupt@keypad^0,w,c
  4684   001C4A  6E01               	movwf	gpio_pin_read_logic@Pin_Config^0,c
  4685   001C4C  0E00               	movlw	0
  4686   001C4E  200C               	addwfc	(get_value_RBX_interrupt@keypad+1)^0,w,c
  4687   001C50  6E02               	movwf	(gpio_pin_read_logic@Pin_Config+1)^0,c
  4688   001C52  0E14               	movlw	low get_value_RBX_interrupt@pin_row_st
  4689   001C54  6E03               	movwf	gpio_pin_read_logic@logic^0,c
  4690   001C56  0E00               	movlw	high get_value_RBX_interrupt@pin_row_st
  4691   001C58  6E04               	movwf	(gpio_pin_read_logic@logic+1)^0,c
  4692   001C5A  EC60  F00E         	call	_gpio_pin_read_logic	;wreg free
  4693   001C5E                     
  4694                           ;ECU_layer/keypad/ecu_keypad.c: 89:                 if(HIGH == pin_row_st)
  4695   001C5E  0414               	decf	get_value_RBX_interrupt@pin_row_st^0,w,c
  4696   001C60  A4D8               	btfss	status,2,c
  4697   001C62  EF35  F00E         	goto	i2u211_41
  4698   001C66  EF37  F00E         	goto	i2u211_40
  4699   001C6A                     i2u211_41:
  4700   001C6A  EF56  F00E         	goto	i2l3019
  4701   001C6E                     i2u211_40:
  4702   001C6E                     
  4703                           ;ECU_layer/keypad/ecu_keypad.c: 90:                        *value = keypad_val[cnt][RBX-
      +                          >interrupt_pin.pin - 1];
  4704   001C6E  EE20 F005          	lfsr	2,5
  4705   001C72  500D               	movf	get_value_RBX_interrupt@RBX^0,w,c
  4706   001C74  26D9               	addwf	fsr2l,f,c
  4707   001C76  500E               	movf	(get_value_RBX_interrupt@RBX+1)^0,w,c
  4708   001C78  22DA               	addwfc	fsr2h,f,c
  4709   001C7A  30DF               	rrcf	223,w,c
  4710   001C7C  32E8               	rrcf	wreg,f,c
  4711   001C7E  32E8               	rrcf	wreg,f,c
  4712   001C80  0B07               	andlw	7
  4713   001C82  6E11               	movwf	??_get_value_RBX_interrupt^0,c
  4714   001C84  5015               	movf	get_value_RBX_interrupt@cnt^0,w,c
  4715   001C86  0D04               	mullw	4
  4716   001C88  0E7F               	movlw	low (_keypad_val+65535)
  4717   001C8A  24F3               	addwf	243,w,c
  4718   001C8C  6E12               	movwf	(??_get_value_RBX_interrupt+1)^0,c
  4719   001C8E  0E00               	movlw	high (_keypad_val+65535)
  4720   001C90  20F4               	addwfc	prodh,w,c
  4721   001C92  6E13               	movwf	(??_get_value_RBX_interrupt+2)^0,c
  4722   001C94  5011               	movf	??_get_value_RBX_interrupt^0,w,c
  4723   001C96  2412               	addwf	(??_get_value_RBX_interrupt+1)^0,w,c
  4724   001C98  6ED9               	movwf	fsr2l,c
  4725   001C9A  0E00               	movlw	0
  4726   001C9C  2013               	addwfc	(??_get_value_RBX_interrupt+2)^0,w,c
  4727   001C9E  6EDA               	movwf	fsr2h,c
  4728   001CA0  C00F  FFE1         	movff	get_value_RBX_interrupt@value,fsr1l
  4729   001CA4  C010  FFE2         	movff	get_value_RBX_interrupt@value+1,fsr1h
  4730   001CA8  CFDF FFE7          	movff	indf2,indf1
  4731   001CAC                     i2l3019:
  4732                           
  4733                           ;ECU_layer/keypad/ecu_keypad.c: 91:             }
  4734   001CAC  2A15               	incf	get_value_RBX_interrupt@cnt^0,f,c
  4735   001CAE  0E03               	movlw	3
  4736   001CB0  6415               	cpfsgt	get_value_RBX_interrupt@cnt^0,c
  4737   001CB2  EF5D  F00E         	goto	i2u212_41
  4738   001CB6  EF5F  F00E         	goto	i2u212_40
  4739   001CBA                     i2u212_41:
  4740   001CBA  EF23  F00E         	goto	i2l3013
  4741   001CBE                     i2u212_40:
  4742   001CBE                     i2l145:
  4743   001CBE  0012               	return		;funcret
  4744   001CC0                     __end_of_get_value_RBX_interrupt:
  4745                           	callstack 0
  4746                           
  4747 ;; *************** function _INT2_ISR *****************
  4748 ;; Defined at:
  4749 ;;		line 260 in file "MCAL_layer/Interrupt/interrupt_external.c"
  4750 ;; Parameters:    Size  Location     Type
  4751 ;;		None
  4752 ;; Auto vars:     Size  Location     Type
  4753 ;;		None
  4754 ;; Return value:  Size  Location     Type
  4755 ;;                  1    wreg      void 
  4756 ;; Registers used:
  4757 ;;		wreg, fsr1l, fsr1h, fsr2l, fsr2h, status,2, status,0, pcl, pclath, pclatu, tosl, prodl, prodh, cstack
  4758 ;; Tracked objects:
  4759 ;;		On entry : 0/0
  4760 ;;		On exit  : 0/0
  4761 ;;		Unchanged: 0/0
  4762 ;; Data sizes:     COMRAM   BANK0   BANK1   BANK2   BANK3   BANK4   BANK5   BANK6   BANK7   BANK8   BANK9  BANK10  BANK1
      +1  BANK12  BANK13  BANK14  BANK15
  4763 ;;      Params:         0       0       0       0       0       0       0       0       0       0       0       0       
      +0       0       0       0       0
  4764 ;;      Locals:         0       0       0       0       0       0       0       0       0       0       0       0       
      +0       0       0       0       0
  4765 ;;      Temps:          0       0       0       0       0       0       0       0       0       0       0       0       
      +0       0       0       0       0
  4766 ;;      Totals:         0       0       0       0       0       0       0       0       0       0       0       0       
      +0       0       0       0       0
  4767 ;;Total ram usage:        0 bytes
  4768 ;; Hardware stack levels used: 1
  4769 ;; Hardware stack levels required when called: 4
  4770 ;; This function calls:
  4771 ;;		NULL
  4772 ;;		_burrun0_interrupt
  4773 ;;		_burrun1_interrupt
  4774 ;;		_burrun2_interrupt
  4775 ;; This function is called by:
  4776 ;;		_InterruptManager
  4777 ;; This function uses a non-reentrant model
  4778 ;;
  4779                           
  4780                           	psect	text29
  4781   0028B8                     __ptext29:
  4782                           	callstack 0
  4783   0028B8                     _INT2_ISR:
  4784                           	callstack 20
  4785   0028B8                     
  4786                           ;MCAL_layer/Interrupt/interrupt_external.c: 262:    if(INT2_SET_HUNDLER_INTERRUPT)
  4787   0028B8  92F0               	bcf	240,1,c	;volatile
  4788   0028BA                     
  4789                           ;MCAL_layer/Interrupt/interrupt_external.c: 263:        INT2_HUNDLER_INTERRUPT();
  4790   0028BA  D802               	call	i2u262_48
  4791   0028BC  EF69  F014         	goto	i2u262_49
  4792   0028C0                     i2u262_48:
  4793   0028C0  0005               	push	
  4794   0028C2  6EFA               	movwf	pclath,c
  4795   0028C4  5038               	movf	_INT2_HUNDLER_INTERRUPT^0,w,c
  4796   0028C6  6EFD               	movwf	tosl,c
  4797   0028C8  5039               	movf	(_INT2_HUNDLER_INTERRUPT+1)^0,w,c
  4798   0028CA  6EFE               	movwf	tosh,c
  4799   0028CC  6AFF               	clrf	tosu,c
  4800   0028CE  50FA               	movf	pclath,w,c
  4801   0028D0  0012               	return		;indir
  4802   0028D2                     i2u262_49:
  4803   0028D2  0012               	return		;funcret
  4804   0028D4                     __end_of_INT2_ISR:
  4805                           	callstack 0
  4806                           
  4807 ;; *************** function _INT1_ISR *****************
  4808 ;; Defined at:
  4809 ;;		line 254 in file "MCAL_layer/Interrupt/interrupt_external.c"
  4810 ;; Parameters:    Size  Location     Type
  4811 ;;		None
  4812 ;; Auto vars:     Size  Location     Type
  4813 ;;		None
  4814 ;; Return value:  Size  Location     Type
  4815 ;;                  1    wreg      void 
  4816 ;; Registers used:
  4817 ;;		wreg, fsr1l, fsr1h, fsr2l, fsr2h, status,2, status,0, pcl, pclath, pclatu, tosl, prodl, prodh, cstack
  4818 ;; Tracked objects:
  4819 ;;		On entry : 0/0
  4820 ;;		On exit  : 0/0
  4821 ;;		Unchanged: 0/0
  4822 ;; Data sizes:     COMRAM   BANK0   BANK1   BANK2   BANK3   BANK4   BANK5   BANK6   BANK7   BANK8   BANK9  BANK10  BANK1
      +1  BANK12  BANK13  BANK14  BANK15
  4823 ;;      Params:         0       0       0       0       0       0       0       0       0       0       0       0       
      +0       0       0       0       0
  4824 ;;      Locals:         0       0       0       0       0       0       0       0       0       0       0       0       
      +0       0       0       0       0
  4825 ;;      Temps:          0       0       0       0       0       0       0       0       0       0       0       0       
      +0       0       0       0       0
  4826 ;;      Totals:         0       0       0       0       0       0       0       0       0       0       0       0       
      +0       0       0       0       0
  4827 ;;Total ram usage:        0 bytes
  4828 ;; Hardware stack levels used: 1
  4829 ;; Hardware stack levels required when called: 4
  4830 ;; This function calls:
  4831 ;;		NULL
  4832 ;;		_burrun0_interrupt
  4833 ;;		_burrun1_interrupt
  4834 ;;		_burrun2_interrupt
  4835 ;; This function is called by:
  4836 ;;		_InterruptManager
  4837 ;; This function uses a non-reentrant model
  4838 ;;
  4839                           
  4840                           	psect	text30
  4841   0028D4                     __ptext30:
  4842                           	callstack 0
  4843   0028D4                     _INT1_ISR:
  4844                           	callstack 20
  4845   0028D4                     
  4846                           ;MCAL_layer/Interrupt/interrupt_external.c: 256:    if(INT1_SET_HUNDLER_INTERRUPT)
  4847   0028D4  90F0               	bcf	240,0,c	;volatile
  4848   0028D6                     
  4849                           ;MCAL_layer/Interrupt/interrupt_external.c: 257:        INT1_HUNDLER_INTERRUPT();
  4850   0028D6  D802               	call	i2u261_48
  4851   0028D8  EF77  F014         	goto	i2u261_49
  4852   0028DC                     i2u261_48:
  4853   0028DC  0005               	push	
  4854   0028DE  6EFA               	movwf	pclath,c
  4855   0028E0  503A               	movf	_INT1_HUNDLER_INTERRUPT^0,w,c
  4856   0028E2  6EFD               	movwf	tosl,c
  4857   0028E4  503B               	movf	(_INT1_HUNDLER_INTERRUPT+1)^0,w,c
  4858   0028E6  6EFE               	movwf	tosh,c
  4859   0028E8  6AFF               	clrf	tosu,c
  4860   0028EA  50FA               	movf	pclath,w,c
  4861   0028EC  0012               	return		;indir
  4862   0028EE                     i2u261_49:
  4863   0028EE  0012               	return		;funcret
  4864   0028F0                     __end_of_INT1_ISR:
  4865                           	callstack 0
  4866                           
  4867 ;; *************** function _INT0_ISR *****************
  4868 ;; Defined at:
  4869 ;;		line 248 in file "MCAL_layer/Interrupt/interrupt_external.c"
  4870 ;; Parameters:    Size  Location     Type
  4871 ;;		None
  4872 ;; Auto vars:     Size  Location     Type
  4873 ;;		None
  4874 ;; Return value:  Size  Location     Type
  4875 ;;                  1    wreg      void 
  4876 ;; Registers used:
  4877 ;;		wreg, fsr1l, fsr1h, fsr2l, fsr2h, status,2, status,0, pcl, pclath, pclatu, tosl, prodl, prodh, cstack
  4878 ;; Tracked objects:
  4879 ;;		On entry : 0/0
  4880 ;;		On exit  : 0/0
  4881 ;;		Unchanged: 0/0
  4882 ;; Data sizes:     COMRAM   BANK0   BANK1   BANK2   BANK3   BANK4   BANK5   BANK6   BANK7   BANK8   BANK9  BANK10  BANK1
      +1  BANK12  BANK13  BANK14  BANK15
  4883 ;;      Params:         0       0       0       0       0       0       0       0       0       0       0       0       
      +0       0       0       0       0
  4884 ;;      Locals:         0       0       0       0       0       0       0       0       0       0       0       0       
      +0       0       0       0       0
  4885 ;;      Temps:          0       0       0       0       0       0       0       0       0       0       0       0       
      +0       0       0       0       0
  4886 ;;      Totals:         0       0       0       0       0       0       0       0       0       0       0       0       
      +0       0       0       0       0
  4887 ;;Total ram usage:        0 bytes
  4888 ;; Hardware stack levels used: 1
  4889 ;; Hardware stack levels required when called: 4
  4890 ;; This function calls:
  4891 ;;		NULL
  4892 ;;		_burrun0_interrupt
  4893 ;;		_burrun1_interrupt
  4894 ;;		_burrun2_interrupt
  4895 ;; This function is called by:
  4896 ;;		_InterruptManager
  4897 ;; This function uses a non-reentrant model
  4898 ;;
  4899                           
  4900                           	psect	text31
  4901   0028F0                     __ptext31:
  4902                           	callstack 0
  4903   0028F0                     _INT0_ISR:
  4904                           	callstack 20
  4905   0028F0                     
  4906                           ;MCAL_layer/Interrupt/interrupt_external.c: 250:    if(INT0_SET_HUNDLER_INTERRUPT)
  4907   0028F0  92F2               	bcf	242,1,c	;volatile
  4908   0028F2                     
  4909                           ;MCAL_layer/Interrupt/interrupt_external.c: 251:        INT0_HUNDLER_INTERRUPT();
  4910   0028F2  D802               	call	i2u260_48
  4911   0028F4  EF85  F014         	goto	i2u260_49
  4912   0028F8                     i2u260_48:
  4913   0028F8  0005               	push	
  4914   0028FA  6EFA               	movwf	pclath,c
  4915   0028FC  503C               	movf	_INT0_HUNDLER_INTERRUPT^0,w,c
  4916   0028FE  6EFD               	movwf	tosl,c
  4917   002900  503D               	movf	(_INT0_HUNDLER_INTERRUPT+1)^0,w,c
  4918   002902  6EFE               	movwf	tosh,c
  4919   002904  6AFF               	clrf	tosu,c
  4920   002906  50FA               	movf	pclath,w,c
  4921   002908  0012               	return		;indir
  4922   00290A                     i2u260_49:
  4923   00290A  0012               	return		;funcret
  4924   00290C                     __end_of_INT0_ISR:
  4925                           	callstack 0
  4926                           
  4927 ;; *************** function _burrun1_interrupt *****************
  4928 ;; Defined at:
  4929 ;;		line 176 in file "Password_safe.c"
  4930 ;; Parameters:    Size  Location     Type
  4931 ;;		None
  4932 ;; Auto vars:     Size  Location     Type
  4933 ;;		None
  4934 ;; Return value:  Size  Location     Type
  4935 ;;                  1    wreg      void 
  4936 ;; Registers used:
  4937 ;;		wreg, fsr1l, fsr1h, fsr2l, fsr2h, status,2, status,0, prodl, prodh, cstack
  4938 ;; Tracked objects:
  4939 ;;		On entry : 0/0
  4940 ;;		On exit  : 0/0
  4941 ;;		Unchanged: 0/0
  4942 ;; Data sizes:     COMRAM   BANK0   BANK1   BANK2   BANK3   BANK4   BANK5   BANK6   BANK7   BANK8   BANK9  BANK10  BANK1
      +1  BANK12  BANK13  BANK14  BANK15
  4943 ;;      Params:         0       0       0       0       0       0       0       0       0       0       0       0       
      +0       0       0       0       0
  4944 ;;      Locals:         0       0       0       0       0       0       0       0       0       0       0       0       
      +0       0       0       0       0
  4945 ;;      Temps:          4       0       0       0       0       0       0       0       0       0       0       0       
      +0       0       0       0       0
  4946 ;;      Totals:         4       0       0       0       0       0       0       0       0       0       0       0       
      +0       0       0       0       0
  4947 ;;Total ram usage:        4 bytes
  4948 ;; Hardware stack levels used: 1
  4949 ;; Hardware stack levels required when called: 3
  4950 ;; This function calls:
  4951 ;;		_EEPROM_Read_Data
  4952 ;;		_get_value_INTX_interrupt
  4953 ;;		i2_send_4_bit_char_data
  4954 ;; This function is called by:
  4955 ;;		_INT0_ISR
  4956 ;;		_INT1_ISR
  4957 ;;		_INT2_ISR
  4958 ;; This function uses a non-reentrant model
  4959 ;;
  4960                           
  4961                           	psect	text32
  4962   00204A                     __ptext32:
  4963                           	callstack 0
  4964   00204A                     _burrun1_interrupt:
  4965                           	callstack 20
  4966   00204A                     
  4967                           ;Password_safe.c: 177:     get_value_INTX_interrupt(&keypad, &INT1_obj, &rd_value);
  4968   00204A  0E4F               	movlw	low _keypad
  4969   00204C  6E0B               	movwf	get_value_INTX_interrupt@keypad^0,c
  4970   00204E  0E00               	movlw	high _keypad
  4971   002050  6E0C               	movwf	(get_value_INTX_interrupt@keypad+1)^0,c
  4972   002052  0EB5               	movlw	low _INT1_obj
  4973   002054  6E0D               	movwf	get_value_INTX_interrupt@INTX^0,c
  4974   002056  0E00               	movlw	high _INT1_obj
  4975   002058  6E0E               	movwf	(get_value_INTX_interrupt@INTX+1)^0,c
  4976   00205A  0E41               	movlw	low _rd_value
  4977   00205C  6E0F               	movwf	get_value_INTX_interrupt@value^0,c
  4978   00205E  0E00               	movlw	high _rd_value
  4979   002060  6E10               	movwf	(get_value_INTX_interrupt@value+1)^0,c
  4980   002062  ECA2  F00D         	call	_get_value_INTX_interrupt	;wreg free
  4981   002066                     
  4982                           ;Password_safe.c: 178:     send_4_bit_char_data(&lcd_4bit,'*');
  4983   002066  0E57               	movlw	low _lcd_4bit
  4984   002068  6E0F               	movwf	i2send_4_bit_char_data@lcd^0,c
  4985   00206A  0E00               	movlw	high _lcd_4bit
  4986   00206C  6E10               	movwf	(i2send_4_bit_char_data@lcd+1)^0,c
  4987   00206E  0E2A               	movlw	42
  4988   002070  6E11               	movwf	i2send_4_bit_char_data@data^0,c
  4989   002072  EC19  F012         	call	i2_send_4_bit_char_data	;wreg free
  4990   002076                     
  4991                           ;Password_safe.c: 179:     EEPROM_Read_Data(0x0000 + cnt_pw, &val);
  4992   002076  C03E  F001         	movff	_cnt_pw,EEPROM_Read_Data@addrees
  4993   00207A  6A02               	clrf	(EEPROM_Read_Data@addrees+1)^0,c
  4994   00207C  0E40               	movlw	low _val
  4995   00207E  6E03               	movwf	EEPROM_Read_Data@data^0,c
  4996   002080  0E00               	movlw	high _val
  4997   002082  6E04               	movwf	(EEPROM_Read_Data@data+1)^0,c
  4998   002084  ECFE  F013         	call	_EEPROM_Read_Data	;wreg free
  4999   002088                     
  5000                           ;Password_safe.c: 180:     _delay((unsigned long)((500)*(4000000UL/4000.0)));
  5001   002088  0E03               	movlw	3
  5002   00208A  6E17               	movwf	(??_burrun1_interrupt+1)^0,c
  5003   00208C  0E8A               	movlw	138
  5004   00208E  6E16               	movwf	??_burrun1_interrupt^0,c
  5005   002090  0E56               	movlw	86
  5006   002092                     i2u430_47:
  5007   002092  2EE8               	decfsz	wreg,f,c
  5008   002094  D7FE               	bra	i2u430_47
  5009   002096  2E16               	decfsz	??_burrun1_interrupt^0,f,c
  5010   002098  D7FC               	bra	i2u430_47
  5011   00209A  2E17               	decfsz	(??_burrun1_interrupt+1)^0,f,c
  5012   00209C  D7FA               	bra	i2u430_47
  5013   00209E                     
  5014                           ;Password_safe.c: 181:     if((rd_value - '0') != val)
  5015   00209E  5040               	movf	_val^0,w,c	;volatile
  5016   0020A0  6E16               	movwf	??_burrun1_interrupt^0,c
  5017   0020A2  6A17               	clrf	(??_burrun1_interrupt+1)^0,c
  5018   0020A4  0ED0               	movlw	208
  5019   0020A6  2441               	addwf	_rd_value^0,w,c	;volatile
  5020   0020A8  6E18               	movwf	(??_burrun1_interrupt+2)^0,c
  5021   0020AA  6A19               	clrf	(??_burrun1_interrupt+3)^0,c
  5022   0020AC  0EFF               	movlw	255
  5023   0020AE  2219               	addwfc	(??_burrun1_interrupt+3)^0,f,c
  5024   0020B0  5016               	movf	??_burrun1_interrupt^0,w,c
  5025   0020B2  1818               	xorwf	(??_burrun1_interrupt+2)^0,w,c
  5026   0020B4  E109               	bnz	i2u238_40
  5027   0020B6  5017               	movf	(??_burrun1_interrupt+1)^0,w,c
  5028   0020B8  1819               	xorwf	(??_burrun1_interrupt+3)^0,w,c
  5029   0020BA  B4D8               	btfsc	status,2,c
  5030   0020BC  EF62  F010         	goto	i2u238_41
  5031   0020C0  EF64  F010         	goto	i2u238_40
  5032   0020C4                     i2u238_41:
  5033   0020C4  EF66  F010         	goto	i2l3355
  5034   0020C8                     i2u238_40:
  5035   0020C8                     
  5036                           ;Password_safe.c: 182:             psw_st = 0;
  5037   0020C8  0E00               	movlw	0
  5038   0020CA  6E4E               	movwf	_psw_st^0,c	;volatile
  5039   0020CC                     i2l3355:
  5040                           
  5041                           ;Password_safe.c: 183:     cnt_pw++;
  5042   0020CC  2A3E               	incf	_cnt_pw^0,f,c
  5043   0020CE  0012               	return		;funcret
  5044   0020D0                     __end_of_burrun1_interrupt:
  5045                           	callstack 0
  5046                           
  5047 ;; *************** function _burrun0_interrupt *****************
  5048 ;; Defined at:
  5049 ;;		line 166 in file "Password_safe.c"
  5050 ;; Parameters:    Size  Location     Type
  5051 ;;		None
  5052 ;; Auto vars:     Size  Location     Type
  5053 ;;		None
  5054 ;; Return value:  Size  Location     Type
  5055 ;;                  1    wreg      void 
  5056 ;; Registers used:
  5057 ;;		wreg, fsr1l, fsr1h, fsr2l, fsr2h, status,2, status,0, prodl, prodh, cstack
  5058 ;; Tracked objects:
  5059 ;;		On entry : 0/0
  5060 ;;		On exit  : 0/0
  5061 ;;		Unchanged: 0/0
  5062 ;; Data sizes:     COMRAM   BANK0   BANK1   BANK2   BANK3   BANK4   BANK5   BANK6   BANK7   BANK8   BANK9  BANK10  BANK1
      +1  BANK12  BANK13  BANK14  BANK15
  5063 ;;      Params:         0       0       0       0       0       0       0       0       0       0       0       0       
      +0       0       0       0       0
  5064 ;;      Locals:         0       0       0       0       0       0       0       0       0       0       0       0       
      +0       0       0       0       0
  5065 ;;      Temps:          4       0       0       0       0       0       0       0       0       0       0       0       
      +0       0       0       0       0
  5066 ;;      Totals:         4       0       0       0       0       0       0       0       0       0       0       0       
      +0       0       0       0       0
  5067 ;;Total ram usage:        4 bytes
  5068 ;; Hardware stack levels used: 1
  5069 ;; Hardware stack levels required when called: 3
  5070 ;; This function calls:
  5071 ;;		_EEPROM_Read_Data
  5072 ;;		_get_value_INTX_interrupt
  5073 ;;		i2_send_4_bit_char_data
  5074 ;; This function is called by:
  5075 ;;		_INT0_ISR
  5076 ;;		_INT1_ISR
  5077 ;;		_INT2_ISR
  5078 ;; This function uses a non-reentrant model
  5079 ;;
  5080                           
  5081                           	psect	text33
  5082   0020D0                     __ptext33:
  5083                           	callstack 0
  5084   0020D0                     _burrun0_interrupt:
  5085                           	callstack 20
  5086   0020D0                     
  5087                           ;Password_safe.c: 167:     get_value_INTX_interrupt(&keypad, &INT0_obj, &rd_value);
  5088   0020D0  0E4F               	movlw	low _keypad
  5089   0020D2  6E0B               	movwf	get_value_INTX_interrupt@keypad^0,c
  5090   0020D4  0E00               	movlw	high _keypad
  5091   0020D6  6E0C               	movwf	(get_value_INTX_interrupt@keypad+1)^0,c
  5092   0020D8  0EBB               	movlw	low _INT0_obj
  5093   0020DA  6E0D               	movwf	get_value_INTX_interrupt@INTX^0,c
  5094   0020DC  0E00               	movlw	high _INT0_obj
  5095   0020DE  6E0E               	movwf	(get_value_INTX_interrupt@INTX+1)^0,c
  5096   0020E0  0E41               	movlw	low _rd_value
  5097   0020E2  6E0F               	movwf	get_value_INTX_interrupt@value^0,c
  5098   0020E4  0E00               	movlw	high _rd_value
  5099   0020E6  6E10               	movwf	(get_value_INTX_interrupt@value+1)^0,c
  5100   0020E8  ECA2  F00D         	call	_get_value_INTX_interrupt	;wreg free
  5101   0020EC                     
  5102                           ;Password_safe.c: 168:     send_4_bit_char_data(&lcd_4bit,'*');
  5103   0020EC  0E57               	movlw	low _lcd_4bit
  5104   0020EE  6E0F               	movwf	i2send_4_bit_char_data@lcd^0,c
  5105   0020F0  0E00               	movlw	high _lcd_4bit
  5106   0020F2  6E10               	movwf	(i2send_4_bit_char_data@lcd+1)^0,c
  5107   0020F4  0E2A               	movlw	42
  5108   0020F6  6E11               	movwf	i2send_4_bit_char_data@data^0,c
  5109   0020F8  EC19  F012         	call	i2_send_4_bit_char_data	;wreg free
  5110   0020FC                     
  5111                           ;Password_safe.c: 169:     EEPROM_Read_Data(0x0000 + cnt_pw, &val);
  5112   0020FC  C03E  F001         	movff	_cnt_pw,EEPROM_Read_Data@addrees
  5113   002100  6A02               	clrf	(EEPROM_Read_Data@addrees+1)^0,c
  5114   002102  0E40               	movlw	low _val
  5115   002104  6E03               	movwf	EEPROM_Read_Data@data^0,c
  5116   002106  0E00               	movlw	high _val
  5117   002108  6E04               	movwf	(EEPROM_Read_Data@data+1)^0,c
  5118   00210A  ECFE  F013         	call	_EEPROM_Read_Data	;wreg free
  5119   00210E                     
  5120                           ;Password_safe.c: 170:     _delay((unsigned long)((500)*(4000000UL/4000.0)));
  5121   00210E  0E03               	movlw	3
  5122   002110  6E17               	movwf	(??_burrun0_interrupt+1)^0,c
  5123   002112  0E8A               	movlw	138
  5124   002114  6E16               	movwf	??_burrun0_interrupt^0,c
  5125   002116  0E56               	movlw	86
  5126   002118                     i2u431_47:
  5127   002118  2EE8               	decfsz	wreg,f,c
  5128   00211A  D7FE               	bra	i2u431_47
  5129   00211C  2E16               	decfsz	??_burrun0_interrupt^0,f,c
  5130   00211E  D7FC               	bra	i2u431_47
  5131   002120  2E17               	decfsz	(??_burrun0_interrupt+1)^0,f,c
  5132   002122  D7FA               	bra	i2u431_47
  5133   002124                     
  5134                           ;Password_safe.c: 171:     if((rd_value - '0') != val)
  5135   002124  5040               	movf	_val^0,w,c	;volatile
  5136   002126  6E16               	movwf	??_burrun0_interrupt^0,c
  5137   002128  6A17               	clrf	(??_burrun0_interrupt+1)^0,c
  5138   00212A  0ED0               	movlw	208
  5139   00212C  2441               	addwf	_rd_value^0,w,c	;volatile
  5140   00212E  6E18               	movwf	(??_burrun0_interrupt+2)^0,c
  5141   002130  6A19               	clrf	(??_burrun0_interrupt+3)^0,c
  5142   002132  0EFF               	movlw	255
  5143   002134  2219               	addwfc	(??_burrun0_interrupt+3)^0,f,c
  5144   002136  5016               	movf	??_burrun0_interrupt^0,w,c
  5145   002138  1818               	xorwf	(??_burrun0_interrupt+2)^0,w,c
  5146   00213A  E109               	bnz	i2u236_40
  5147   00213C  5017               	movf	(??_burrun0_interrupt+1)^0,w,c
  5148   00213E  1819               	xorwf	(??_burrun0_interrupt+3)^0,w,c
  5149   002140  B4D8               	btfsc	status,2,c
  5150   002142  EFA5  F010         	goto	i2u236_41
  5151   002146  EFA7  F010         	goto	i2u236_40
  5152   00214A                     i2u236_41:
  5153   00214A  EFA9  F010         	goto	i2l3329
  5154   00214E                     i2u236_40:
  5155   00214E                     
  5156                           ;Password_safe.c: 172:          psw_st = 0;
  5157   00214E  0E00               	movlw	0
  5158   002150  6E4E               	movwf	_psw_st^0,c	;volatile
  5159   002152                     i2l3329:
  5160                           
  5161                           ;Password_safe.c: 173:     cnt_pw++;
  5162   002152  2A3E               	incf	_cnt_pw^0,f,c
  5163   002154  0012               	return		;funcret
  5164   002156                     __end_of_burrun0_interrupt:
  5165                           	callstack 0
  5166                           
  5167 ;; *************** function _burrun2_interrupt *****************
  5168 ;; Defined at:
  5169 ;;		line 185 in file "Password_safe.c"
  5170 ;; Parameters:    Size  Location     Type
  5171 ;;		None
  5172 ;; Auto vars:     Size  Location     Type
  5173 ;;		None
  5174 ;; Return value:  Size  Location     Type
  5175 ;;                  1    wreg      void 
  5176 ;; Registers used:
  5177 ;;		wreg, fsr1l, fsr1h, fsr2l, fsr2h, status,2, status,0, prodl, prodh, cstack
  5178 ;; Tracked objects:
  5179 ;;		On entry : 0/0
  5180 ;;		On exit  : 0/0
  5181 ;;		Unchanged: 0/0
  5182 ;; Data sizes:     COMRAM   BANK0   BANK1   BANK2   BANK3   BANK4   BANK5   BANK6   BANK7   BANK8   BANK9  BANK10  BANK1
      +1  BANK12  BANK13  BANK14  BANK15
  5183 ;;      Params:         0       0       0       0       0       0       0       0       0       0       0       0       
      +0       0       0       0       0
  5184 ;;      Locals:         0       0       0       0       0       0       0       0       0       0       0       0       
      +0       0       0       0       0
  5185 ;;      Temps:          4       0       0       0       0       0       0       0       0       0       0       0       
      +0       0       0       0       0
  5186 ;;      Totals:         4       0       0       0       0       0       0       0       0       0       0       0       
      +0       0       0       0       0
  5187 ;;Total ram usage:        4 bytes
  5188 ;; Hardware stack levels used: 1
  5189 ;; Hardware stack levels required when called: 3
  5190 ;; This function calls:
  5191 ;;		_EEPROM_Read_Data
  5192 ;;		_get_value_INTX_interrupt
  5193 ;;		i2_send_4_bit_char_data
  5194 ;; This function is called by:
  5195 ;;		_INT0_ISR
  5196 ;;		_INT1_ISR
  5197 ;;		_INT2_ISR
  5198 ;; This function uses a non-reentrant model
  5199 ;;
  5200                           
  5201                           	psect	text34
  5202   002156                     __ptext34:
  5203                           	callstack 0
  5204   002156                     _burrun2_interrupt:
  5205                           	callstack 20
  5206   002156                     
  5207                           ;Password_safe.c: 186:     get_value_INTX_interrupt(&keypad, &INT2_obj, &rd_value);
  5208   002156  0E4F               	movlw	low _keypad
  5209   002158  6E0B               	movwf	get_value_INTX_interrupt@keypad^0,c
  5210   00215A  0E00               	movlw	high _keypad
  5211   00215C  6E0C               	movwf	(get_value_INTX_interrupt@keypad+1)^0,c
  5212   00215E  0EAF               	movlw	low _INT2_obj
  5213   002160  6E0D               	movwf	get_value_INTX_interrupt@INTX^0,c
  5214   002162  0E00               	movlw	high _INT2_obj
  5215   002164  6E0E               	movwf	(get_value_INTX_interrupt@INTX+1)^0,c
  5216   002166  0E41               	movlw	low _rd_value
  5217   002168  6E0F               	movwf	get_value_INTX_interrupt@value^0,c
  5218   00216A  0E00               	movlw	high _rd_value
  5219   00216C  6E10               	movwf	(get_value_INTX_interrupt@value+1)^0,c
  5220   00216E  ECA2  F00D         	call	_get_value_INTX_interrupt	;wreg free
  5221   002172                     
  5222                           ;Password_safe.c: 187:     send_4_bit_char_data(&lcd_4bit,'*');
  5223   002172  0E57               	movlw	low _lcd_4bit
  5224   002174  6E0F               	movwf	i2send_4_bit_char_data@lcd^0,c
  5225   002176  0E00               	movlw	high _lcd_4bit
  5226   002178  6E10               	movwf	(i2send_4_bit_char_data@lcd+1)^0,c
  5227   00217A  0E2A               	movlw	42
  5228   00217C  6E11               	movwf	i2send_4_bit_char_data@data^0,c
  5229   00217E  EC19  F012         	call	i2_send_4_bit_char_data	;wreg free
  5230   002182                     
  5231                           ;Password_safe.c: 188:     EEPROM_Read_Data(0x0000 + cnt_pw, &val);
  5232   002182  C03E  F001         	movff	_cnt_pw,EEPROM_Read_Data@addrees
  5233   002186  6A02               	clrf	(EEPROM_Read_Data@addrees+1)^0,c
  5234   002188  0E40               	movlw	low _val
  5235   00218A  6E03               	movwf	EEPROM_Read_Data@data^0,c
  5236   00218C  0E00               	movlw	high _val
  5237   00218E  6E04               	movwf	(EEPROM_Read_Data@data+1)^0,c
  5238   002190  ECFE  F013         	call	_EEPROM_Read_Data	;wreg free
  5239   002194                     
  5240                           ;Password_safe.c: 189:      _delay((unsigned long)((500)*(4000000UL/4000.0)));
  5241   002194  0E03               	movlw	3
  5242   002196  6E17               	movwf	(??_burrun2_interrupt+1)^0,c
  5243   002198  0E8A               	movlw	138
  5244   00219A  6E16               	movwf	??_burrun2_interrupt^0,c
  5245   00219C  0E56               	movlw	86
  5246   00219E                     i2u432_47:
  5247   00219E  2EE8               	decfsz	wreg,f,c
  5248   0021A0  D7FE               	bra	i2u432_47
  5249   0021A2  2E16               	decfsz	??_burrun2_interrupt^0,f,c
  5250   0021A4  D7FC               	bra	i2u432_47
  5251   0021A6  2E17               	decfsz	(??_burrun2_interrupt+1)^0,f,c
  5252   0021A8  D7FA               	bra	i2u432_47
  5253   0021AA                     
  5254                           ;Password_safe.c: 190:     if((rd_value - '0') != val)
  5255   0021AA  5040               	movf	_val^0,w,c	;volatile
  5256   0021AC  6E16               	movwf	??_burrun2_interrupt^0,c
  5257   0021AE  6A17               	clrf	(??_burrun2_interrupt+1)^0,c
  5258   0021B0  0ED0               	movlw	208
  5259   0021B2  2441               	addwf	_rd_value^0,w,c	;volatile
  5260   0021B4  6E18               	movwf	(??_burrun2_interrupt+2)^0,c
  5261   0021B6  6A19               	clrf	(??_burrun2_interrupt+3)^0,c
  5262   0021B8  0EFF               	movlw	255
  5263   0021BA  2219               	addwfc	(??_burrun2_interrupt+3)^0,f,c
  5264   0021BC  5016               	movf	??_burrun2_interrupt^0,w,c
  5265   0021BE  1818               	xorwf	(??_burrun2_interrupt+2)^0,w,c
  5266   0021C0  E109               	bnz	i2u239_40
  5267   0021C2  5017               	movf	(??_burrun2_interrupt+1)^0,w,c
  5268   0021C4  1819               	xorwf	(??_burrun2_interrupt+3)^0,w,c
  5269   0021C6  B4D8               	btfsc	status,2,c
  5270   0021C8  EFE8  F010         	goto	i2u239_41
  5271   0021CC  EFEA  F010         	goto	i2u239_40
  5272   0021D0                     i2u239_41:
  5273   0021D0  EFEC  F010         	goto	i2l3369
  5274   0021D4                     i2u239_40:
  5275   0021D4                     
  5276                           ;Password_safe.c: 191:             psw_st = 0;
  5277   0021D4  0E00               	movlw	0
  5278   0021D6  6E4E               	movwf	_psw_st^0,c	;volatile
  5279   0021D8                     i2l3369:
  5280                           
  5281                           ;Password_safe.c: 192:     cnt_pw++;
  5282   0021D8  2A3E               	incf	_cnt_pw^0,f,c
  5283   0021DA  0012               	return		;funcret
  5284   0021DC                     __end_of_burrun2_interrupt:
  5285                           	callstack 0
  5286                           
  5287 ;; *************** function i2_send_4_bit_char_data *****************
  5288 ;; Defined at:
  5289 ;;		line 61 in file "ECU_layer/LCD/ecu_lcd.c"
  5290 ;; Parameters:    Size  Location     Type
  5291 ;;  lcd             2   14[COMRAM] PTR const struct .
  5292 ;;		 -> lcd_4bit(6), 
  5293 ;;  data            1   16[COMRAM] unsigned char 
  5294 ;; Auto vars:     Size  Location     Type
  5295 ;;  ret             1   17[COMRAM] unsigned char 
  5296 ;; Return value:  Size  Location     Type
  5297 ;;                  1    wreg      unsigned char 
  5298 ;; Registers used:
  5299 ;;		wreg, fsr2l, fsr2h, status,2, status,0, prodl, prodh, cstack
  5300 ;; Tracked objects:
  5301 ;;		On entry : 0/0
  5302 ;;		On exit  : 0/0
  5303 ;;		Unchanged: 0/0
  5304 ;; Data sizes:     COMRAM   BANK0   BANK1   BANK2   BANK3   BANK4   BANK5   BANK6   BANK7   BANK8   BANK9  BANK10  BANK1
      +1  BANK12  BANK13  BANK14  BANK15
  5305 ;;      Params:         3       0       0       0       0       0       0       0       0       0       0       0       
      +0       0       0       0       0
  5306 ;;      Locals:         1       0       0       0       0       0       0       0       0       0       0       0       
      +0       0       0       0       0
  5307 ;;      Temps:          0       0       0       0       0       0       0       0       0       0       0       0       
      +0       0       0       0       0
  5308 ;;      Totals:         4       0       0       0       0       0       0       0       0       0       0       0       
      +0       0       0       0       0
  5309 ;;Total ram usage:        4 bytes
  5310 ;; Hardware stack levels used: 1
  5311 ;; Hardware stack levels required when called: 2
  5312 ;; This function calls:
  5313 ;;		i2_gpio_pin_write_logic
  5314 ;;		i2_send_4_bit_enable
  5315 ;;		i2_send_4_bit_help
  5316 ;; This function is called by:
  5317 ;;		_burrun0_interrupt
  5318 ;;		_burrun1_interrupt
  5319 ;;		_burrun2_interrupt
  5320 ;;		_burrun3_interrupt
  5321 ;; This function uses a non-reentrant model
  5322 ;;
  5323                           
  5324                           	psect	text35
  5325   002432                     __ptext35:
  5326                           	callstack 0
  5327   002432                     i2_send_4_bit_char_data:
  5328                           	callstack 20
  5329   002432                     
  5330                           ;ECU_layer/LCD/ecu_lcd.c: 63:     if(((void*)0) == lcd)
  5331   002432  500F               	movf	i2send_4_bit_char_data@lcd^0,w,c
  5332   002434  1010               	iorwf	(i2send_4_bit_char_data@lcd+1)^0,w,c
  5333   002436  A4D8               	btfss	status,2,c
  5334   002438  EF20  F012         	goto	i2u230_41
  5335   00243C  EF22  F012         	goto	i2u230_40
  5336   002440                     i2u230_41:
  5337   002440  EF24  F012         	goto	i2l3209
  5338   002444                     i2u230_40:
  5339   002444  EF4E  F012         	goto	i2l186
  5340   002448                     i2l3209:
  5341                           
  5342                           ;ECU_layer/LCD/ecu_lcd.c: 66:     {;ECU_layer/LCD/ecu_lcd.c: 67:         ret = gpio_pin_
      +                          write_logic(&(lcd->rs_lcd),HIGH);
  5343   002448  C00F  F001         	movff	i2send_4_bit_char_data@lcd,i2gpio_pin_write_logic@Pin_Config
  5344   00244C  C010  F002         	movff	i2send_4_bit_char_data@lcd+1,i2gpio_pin_write_logic@Pin_Config+1
  5345   002450  0E01               	movlw	1
  5346   002452  6E03               	movwf	i2gpio_pin_write_logic@logic^0,c
  5347   002454  ECA9  F00C         	call	i2_gpio_pin_write_logic	;wreg free
  5348   002458  6E12               	movwf	i2send_4_bit_char_data@ret^0,c
  5349                           
  5350                           ;ECU_layer/LCD/ecu_lcd.c: 68:         ret = send_4_bit_help(lcd,data >> 4);
  5351   00245A  C00F  F00B         	movff	i2send_4_bit_char_data@lcd,i2send_4_bit_help@lcd
  5352   00245E  C010  F00C         	movff	i2send_4_bit_char_data@lcd+1,i2send_4_bit_help@lcd+1
  5353   002462  3811               	swapf	i2send_4_bit_char_data@data^0,w,c
  5354   002464  0B0F               	andlw	15
  5355   002466  6E0D               	movwf	i2send_4_bit_help@data_command^0,c
  5356   002468  EC9E  F00F         	call	i2_send_4_bit_help	;wreg free
  5357   00246C  6E12               	movwf	i2send_4_bit_char_data@ret^0,c
  5358                           
  5359                           ;ECU_layer/LCD/ecu_lcd.c: 69:         ret = send_4_bit_enable(lcd);
  5360   00246E  C00F  F00B         	movff	i2send_4_bit_char_data@lcd,i2send_4_bit_enable@lcd
  5361   002472  C010  F00C         	movff	i2send_4_bit_char_data@lcd+1,i2send_4_bit_enable@lcd+1
  5362   002476  EC70  F013         	call	i2_send_4_bit_enable	;wreg free
  5363   00247A  6E12               	movwf	i2send_4_bit_char_data@ret^0,c
  5364                           
  5365                           ;ECU_layer/LCD/ecu_lcd.c: 70:         ret = send_4_bit_help(lcd,data);
  5366   00247C  C00F  F00B         	movff	i2send_4_bit_char_data@lcd,i2send_4_bit_help@lcd
  5367   002480  C010  F00C         	movff	i2send_4_bit_char_data@lcd+1,i2send_4_bit_help@lcd+1
  5368   002484  C011  F00D         	movff	i2send_4_bit_char_data@data,i2send_4_bit_help@data_command
  5369   002488  EC9E  F00F         	call	i2_send_4_bit_help	;wreg free
  5370   00248C  6E12               	movwf	i2send_4_bit_char_data@ret^0,c
  5371                           
  5372                           ;ECU_layer/LCD/ecu_lcd.c: 71:         ret = send_4_bit_enable(lcd);
  5373   00248E  C00F  F00B         	movff	i2send_4_bit_char_data@lcd,i2send_4_bit_enable@lcd
  5374   002492  C010  F00C         	movff	i2send_4_bit_char_data@lcd+1,i2send_4_bit_enable@lcd+1
  5375   002496  EC70  F013         	call	i2_send_4_bit_enable	;wreg free
  5376   00249A  6E12               	movwf	i2send_4_bit_char_data@ret^0,c
  5377   00249C                     i2l186:
  5378   00249C  0012               	return		;funcret
  5379   00249E                     __end_ofi2_send_4_bit_char_data:
  5380                           	callstack 0
  5381                           
  5382 ;; *************** function i2_send_4_bit_help *****************
  5383 ;; Defined at:
  5384 ;;		line 125 in file "ECU_layer/LCD/ecu_lcd.c"
  5385 ;; Parameters:    Size  Location     Type
  5386 ;;  lcd             2   10[COMRAM] PTR const struct .
  5387 ;;		 -> lcd_4bit(6), 
  5388 ;;  data_command    1   12[COMRAM] unsigned char 
  5389 ;; Auto vars:     Size  Location     Type
  5390 ;;  ret             1   13[COMRAM] unsigned char 
  5391 ;; Return value:  Size  Location     Type
  5392 ;;                  1    wreg      unsigned char 
  5393 ;; Registers used:
  5394 ;;		wreg, fsr2l, fsr2h, status,2, status,0, prodl, prodh, cstack
  5395 ;; Tracked objects:
  5396 ;;		On entry : 0/0
  5397 ;;		On exit  : 0/0
  5398 ;;		Unchanged: 0/0
  5399 ;; Data sizes:     COMRAM   BANK0   BANK1   BANK2   BANK3   BANK4   BANK5   BANK6   BANK7   BANK8   BANK9  BANK10  BANK1
      +1  BANK12  BANK13  BANK14  BANK15
  5400 ;;      Params:         3       0       0       0       0       0       0       0       0       0       0       0       
      +0       0       0       0       0
  5401 ;;      Locals:         1       0       0       0       0       0       0       0       0       0       0       0       
      +0       0       0       0       0
  5402 ;;      Temps:          0       0       0       0       0       0       0       0       0       0       0       0       
      +0       0       0       0       0
  5403 ;;      Totals:         4       0       0       0       0       0       0       0       0       0       0       0       
      +0       0       0       0       0
  5404 ;;Total ram usage:        4 bytes
  5405 ;; Hardware stack levels used: 1
  5406 ;; Hardware stack levels required when called: 1
  5407 ;; This function calls:
  5408 ;;		i2_gpio_pin_write_logic
  5409 ;; This function is called by:
  5410 ;;		i2_send_4_bit_char_data
  5411 ;; This function uses a non-reentrant model
  5412 ;;
  5413                           
  5414                           	psect	text36
  5415   001F3C                     __ptext36:
  5416                           	callstack 0
  5417   001F3C                     i2_send_4_bit_help:
  5418                           	callstack 20
  5419   001F3C                     
  5420                           ;ECU_layer/LCD/ecu_lcd.c: 127:     if(((void*)0) == lcd)
  5421   001F3C  500B               	movf	i2send_4_bit_help@lcd^0,w,c
  5422   001F3E  100C               	iorwf	(i2send_4_bit_help@lcd+1)^0,w,c
  5423   001F40  A4D8               	btfss	status,2,c
  5424   001F42  EFA5  F00F         	goto	i2u200_41
  5425   001F46  EFA7  F00F         	goto	i2u200_40
  5426   001F4A                     i2u200_41:
  5427   001F4A  EFAB  F00F         	goto	i2l2927
  5428   001F4E                     i2u200_40:
  5429   001F4E                     
  5430                           ;ECU_layer/LCD/ecu_lcd.c: 128:         ret = (Std_ReturnType)0x00;
  5431   001F4E  0E00               	movlw	0
  5432   001F50  6E0E               	movwf	i2send_4_bit_help@ret^0,c
  5433   001F52  EFE0  F00F         	goto	i2l2929
  5434   001F56                     i2l2927:
  5435                           
  5436                           ;ECU_layer/LCD/ecu_lcd.c: 130:     {;ECU_layer/LCD/ecu_lcd.c: 131:            ret = gpio
      +                          _pin_write_logic(&(lcd->lcd_pin[0]),((data_command >> 0)& (uint8)0x01));
  5437   001F56  0E01               	movlw	1
  5438   001F58  240B               	addwf	i2send_4_bit_help@lcd^0,w,c
  5439   001F5A  6E01               	movwf	i2gpio_pin_write_logic@Pin_Config^0,c
  5440   001F5C  0E00               	movlw	0
  5441   001F5E  200C               	addwfc	(i2send_4_bit_help@lcd+1)^0,w,c
  5442   001F60  6E02               	movwf	(i2gpio_pin_write_logic@Pin_Config+1)^0,c
  5443   001F62  500D               	movf	i2send_4_bit_help@data_command^0,w,c
  5444   001F64  0B01               	andlw	1
  5445   001F66  6E03               	movwf	i2gpio_pin_write_logic@logic^0,c
  5446   001F68  ECA9  F00C         	call	i2_gpio_pin_write_logic	;wreg free
  5447   001F6C  6E0E               	movwf	i2send_4_bit_help@ret^0,c
  5448                           
  5449                           ;ECU_layer/LCD/ecu_lcd.c: 132:            ret = gpio_pin_write_logic(&(lcd->lcd_pin[1]),
      +                          ((data_command >> 1)& (uint8)0x01));
  5450   001F6E  0E02               	movlw	2
  5451   001F70  240B               	addwf	i2send_4_bit_help@lcd^0,w,c
  5452   001F72  6E01               	movwf	i2gpio_pin_write_logic@Pin_Config^0,c
  5453   001F74  0E00               	movlw	0
  5454   001F76  200C               	addwfc	(i2send_4_bit_help@lcd+1)^0,w,c
  5455   001F78  6E02               	movwf	(i2gpio_pin_write_logic@Pin_Config+1)^0,c
  5456   001F7A  90D8               	bcf	status,0,c
  5457   001F7C  300D               	rrcf	i2send_4_bit_help@data_command^0,w,c
  5458   001F7E  0B01               	andlw	1
  5459   001F80  6E03               	movwf	i2gpio_pin_write_logic@logic^0,c
  5460   001F82  ECA9  F00C         	call	i2_gpio_pin_write_logic	;wreg free
  5461   001F86  6E0E               	movwf	i2send_4_bit_help@ret^0,c
  5462                           
  5463                           ;ECU_layer/LCD/ecu_lcd.c: 133:            ret = gpio_pin_write_logic(&(lcd->lcd_pin[2]),
      +                          ((data_command >> 2)& (uint8)0x01));
  5464   001F88  0E03               	movlw	3
  5465   001F8A  240B               	addwf	i2send_4_bit_help@lcd^0,w,c
  5466   001F8C  6E01               	movwf	i2gpio_pin_write_logic@Pin_Config^0,c
  5467   001F8E  0E00               	movlw	0
  5468   001F90  200C               	addwfc	(i2send_4_bit_help@lcd+1)^0,w,c
  5469   001F92  6E02               	movwf	(i2gpio_pin_write_logic@Pin_Config+1)^0,c
  5470   001F94  400D               	rrncf	i2send_4_bit_help@data_command^0,w,c
  5471   001F96  42E8               	rrncf	wreg,f,c
  5472   001F98  0B3F               	andlw	63
  5473   001F9A  0B01               	andlw	1
  5474   001F9C  6E03               	movwf	i2gpio_pin_write_logic@logic^0,c
  5475   001F9E  ECA9  F00C         	call	i2_gpio_pin_write_logic	;wreg free
  5476   001FA2  6E0E               	movwf	i2send_4_bit_help@ret^0,c
  5477                           
  5478                           ;ECU_layer/LCD/ecu_lcd.c: 134:            ret = gpio_pin_write_logic(&(lcd->lcd_pin[3]),
      +                          ((data_command >> 3)& (uint8)0x01));
  5479   001FA4  0E04               	movlw	4
  5480   001FA6  240B               	addwf	i2send_4_bit_help@lcd^0,w,c
  5481   001FA8  6E01               	movwf	i2gpio_pin_write_logic@Pin_Config^0,c
  5482   001FAA  0E00               	movlw	0
  5483   001FAC  200C               	addwfc	(i2send_4_bit_help@lcd+1)^0,w,c
  5484   001FAE  6E02               	movwf	(i2gpio_pin_write_logic@Pin_Config+1)^0,c
  5485   001FB0  380D               	swapf	i2send_4_bit_help@data_command^0,w,c
  5486   001FB2  46E8               	rlncf	wreg,f,c
  5487   001FB4  0B1F               	andlw	31
  5488   001FB6  0B01               	andlw	1
  5489   001FB8  6E03               	movwf	i2gpio_pin_write_logic@logic^0,c
  5490   001FBA  ECA9  F00C         	call	i2_gpio_pin_write_logic	;wreg free
  5491   001FBE  6E0E               	movwf	i2send_4_bit_help@ret^0,c
  5492   001FC0                     i2l2929:
  5493                           
  5494                           ;ECU_layer/LCD/ecu_lcd.c: 136:              return ret;
  5495   001FC0  500E               	movf	i2send_4_bit_help@ret^0,w,c
  5496   001FC2  0012               	return		;funcret
  5497   001FC4                     __end_ofi2_send_4_bit_help:
  5498                           	callstack 0
  5499                           
  5500 ;; *************** function i2_send_4_bit_enable *****************
  5501 ;; Defined at:
  5502 ;;		line 75 in file "ECU_layer/LCD/ecu_lcd.c"
  5503 ;; Parameters:    Size  Location     Type
  5504 ;;  lcd             2   10[COMRAM] PTR const struct .
  5505 ;;		 -> lcd_4bit(6), 
  5506 ;; Auto vars:     Size  Location     Type
  5507 ;;  ret             1   12[COMRAM] unsigned char 
  5508 ;; Return value:  Size  Location     Type
  5509 ;;                  1    wreg      unsigned char 
  5510 ;; Registers used:
  5511 ;;		wreg, fsr2l, fsr2h, status,2, status,0, prodl, prodh, cstack
  5512 ;; Tracked objects:
  5513 ;;		On entry : 0/0
  5514 ;;		On exit  : 0/0
  5515 ;;		Unchanged: 0/0
  5516 ;; Data sizes:     COMRAM   BANK0   BANK1   BANK2   BANK3   BANK4   BANK5   BANK6   BANK7   BANK8   BANK9  BANK10  BANK1
      +1  BANK12  BANK13  BANK14  BANK15
  5517 ;;      Params:         2       0       0       0       0       0       0       0       0       0       0       0       
      +0       0       0       0       0
  5518 ;;      Locals:         1       0       0       0       0       0       0       0       0       0       0       0       
      +0       0       0       0       0
  5519 ;;      Temps:          0       0       0       0       0       0       0       0       0       0       0       0       
      +0       0       0       0       0
  5520 ;;      Totals:         3       0       0       0       0       0       0       0       0       0       0       0       
      +0       0       0       0       0
  5521 ;;Total ram usage:        3 bytes
  5522 ;; Hardware stack levels used: 1
  5523 ;; Hardware stack levels required when called: 1
  5524 ;; This function calls:
  5525 ;;		i2_gpio_pin_write_logic
  5526 ;; This function is called by:
  5527 ;;		i2_send_4_bit_char_data
  5528 ;; This function uses a non-reentrant model
  5529 ;;
  5530                           
  5531                           	psect	text37
  5532   0026E0                     __ptext37:
  5533                           	callstack 0
  5534   0026E0                     i2_send_4_bit_enable:
  5535                           	callstack 20
  5536   0026E0                     
  5537                           ;ECU_layer/LCD/ecu_lcd.c: 77:     if(((void*)0) == lcd)
  5538   0026E0  500B               	movf	i2send_4_bit_enable@lcd^0,w,c
  5539   0026E2  100C               	iorwf	(i2send_4_bit_enable@lcd+1)^0,w,c
  5540   0026E4  A4D8               	btfss	status,2,c
  5541   0026E6  EF77  F013         	goto	i2u199_41
  5542   0026EA  EF79  F013         	goto	i2u199_40
  5543   0026EE                     i2u199_41:
  5544   0026EE  EF7D  F013         	goto	i2l2913
  5545   0026F2                     i2u199_40:
  5546   0026F2                     
  5547                           ;ECU_layer/LCD/ecu_lcd.c: 78:         ret = (Std_ReturnType)0x00;
  5548   0026F2  0E00               	movlw	0
  5549   0026F4  6E0D               	movwf	i2send_4_bit_enable@ret^0,c
  5550   0026F6  EF95  F013         	goto	i2l2917
  5551   0026FA                     i2l2913:
  5552   0026FA  0E05               	movlw	5
  5553   0026FC  240B               	addwf	i2send_4_bit_enable@lcd^0,w,c
  5554   0026FE  6E01               	movwf	i2gpio_pin_write_logic@Pin_Config^0,c
  5555   002700  0E00               	movlw	0
  5556   002702  200C               	addwfc	(i2send_4_bit_enable@lcd+1)^0,w,c
  5557   002704  6E02               	movwf	(i2gpio_pin_write_logic@Pin_Config+1)^0,c
  5558   002706  0E01               	movlw	1
  5559   002708  6E03               	movwf	i2gpio_pin_write_logic@logic^0,c
  5560   00270A  ECA9  F00C         	call	i2_gpio_pin_write_logic	;wreg free
  5561   00270E                     
  5562                           ;ECU_layer/LCD/ecu_lcd.c: 82:         _delay((unsigned long)((5)*(4000000UL/4000000.0)))
      +                          ;
  5563   00270E  D000               	nop2		;2 cycle nop
  5564   002710  D000               	nop2		;2 cycle nop
  5565   002712  F000               	nop	
  5566                           
  5567                           ;ECU_layer/LCD/ecu_lcd.c: 83:         ret = gpio_pin_write_logic(&(lcd->en_lcd),LOW);
  5568   002714  0E05               	movlw	5
  5569   002716  240B               	addwf	i2send_4_bit_enable@lcd^0,w,c
  5570   002718  6E01               	movwf	i2gpio_pin_write_logic@Pin_Config^0,c
  5571   00271A  0E00               	movlw	0
  5572   00271C  200C               	addwfc	(i2send_4_bit_enable@lcd+1)^0,w,c
  5573   00271E  6E02               	movwf	(i2gpio_pin_write_logic@Pin_Config+1)^0,c
  5574   002720  0E00               	movlw	0
  5575   002722  6E03               	movwf	i2gpio_pin_write_logic@logic^0,c
  5576   002724  ECA9  F00C         	call	i2_gpio_pin_write_logic	;wreg free
  5577   002728  6E0D               	movwf	i2send_4_bit_enable@ret^0,c
  5578   00272A                     i2l2917:
  5579                           
  5580                           ;ECU_layer/LCD/ecu_lcd.c: 85:         return ret;
  5581   00272A  500D               	movf	i2send_4_bit_enable@ret^0,w,c
  5582   00272C  0012               	return		;funcret
  5583   00272E                     __end_ofi2_send_4_bit_enable:
  5584                           	callstack 0
  5585                           
  5586 ;; *************** function i2_gpio_pin_write_logic *****************
  5587 ;; Defined at:
  5588 ;;		line 75 in file "MCAL_layer/GPIO/gpio.c"
  5589 ;; Parameters:    Size  Location     Type
  5590 ;;  Pin_Config      2    0[COMRAM] PTR const struct .
  5591 ;;		 -> lcd_4bit.lcd_pin(4), lcd_4bit(6), keypad(8), 
  5592 ;;  logic           1    2[COMRAM] enum E2968
  5593 ;; Auto vars:     Size  Location     Type
  5594 ;;  ret             1    9[COMRAM] unsigned char 
  5595 ;; Return value:  Size  Location     Type
  5596 ;;                  1    wreg      unsigned char 
  5597 ;; Registers used:
  5598 ;;		wreg, fsr2l, fsr2h, status,2, status,0, prodl, prodh
  5599 ;; Tracked objects:
  5600 ;;		On entry : 0/0
  5601 ;;		On exit  : 0/0
  5602 ;;		Unchanged: 0/0
  5603 ;; Data sizes:     COMRAM   BANK0   BANK1   BANK2   BANK3   BANK4   BANK5   BANK6   BANK7   BANK8   BANK9  BANK10  BANK1
      +1  BANK12  BANK13  BANK14  BANK15
  5604 ;;      Params:         3       0       0       0       0       0       0       0       0       0       0       0       
      +0       0       0       0       0
  5605 ;;      Locals:         1       0       0       0       0       0       0       0       0       0       0       0       
      +0       0       0       0       0
  5606 ;;      Temps:          6       0       0       0       0       0       0       0       0       0       0       0       
      +0       0       0       0       0
  5607 ;;      Totals:        10       0       0       0       0       0       0       0       0       0       0       0       
      +0       0       0       0       0
  5608 ;;Total ram usage:       10 bytes
  5609 ;; Hardware stack levels used: 1
  5610 ;; This function calls:
  5611 ;;		Nothing
  5612 ;; This function is called by:
  5613 ;;		i2_send_4_bit_char_data
  5614 ;;		i2_send_4_bit_enable
  5615 ;;		i2_send_4_bit_help
  5616 ;; This function uses a non-reentrant model
  5617 ;;
  5618                           
  5619                           	psect	text38
  5620   001952                     __ptext38:
  5621                           	callstack 0
  5622   001952                     i2_gpio_pin_write_logic:
  5623                           	callstack 20
  5624   001952                     
  5625                           ;MCAL_layer/GPIO/gpio.c: 76:      Std_ReturnType ret = (Std_ReturnType)0x01;
  5626   001952  0E01               	movlw	1
  5627   001954  6E0A               	movwf	i2gpio_pin_write_logic@ret^0,c
  5628   001956                     
  5629                           ;MCAL_layer/GPIO/gpio.c: 77:     if(((void*)0) == Pin_Config || Pin_Config->pin > 8)
  5630   001956  5001               	movf	i2gpio_pin_write_logic@Pin_Config^0,w,c
  5631   001958  1002               	iorwf	(i2gpio_pin_write_logic@Pin_Config+1)^0,w,c
  5632   00195A  B4D8               	btfsc	status,2,c
  5633   00195C  EFB2  F00C         	goto	i2u178_41
  5634   001960  EFB4  F00C         	goto	i2u178_40
  5635   001964                     i2u178_41:
  5636   001964  EFC5  F00C         	goto	i2l2795
  5637   001968                     i2u178_40:
  5638   001968  C001  FFD9         	movff	i2gpio_pin_write_logic@Pin_Config,fsr2l
  5639   00196C  C002  FFDA         	movff	i2gpio_pin_write_logic@Pin_Config+1,fsr2h
  5640   001970  30DF               	rrcf	223,w,c
  5641   001972  32E8               	rrcf	wreg,f,c
  5642   001974  32E8               	rrcf	wreg,f,c
  5643   001976  0B07               	andlw	7
  5644   001978  6E04               	movwf	??i2_gpio_pin_write_logic^0,c
  5645   00197A  0E08               	movlw	8
  5646   00197C  6404               	cpfsgt	??i2_gpio_pin_write_logic^0,c
  5647   00197E  EFC3  F00C         	goto	i2u179_41
  5648   001982  EFC5  F00C         	goto	i2u179_40
  5649   001986                     i2u179_41:
  5650   001986  EFC9  F00C         	goto	i2l2797
  5651   00198A                     i2u179_40:
  5652   00198A                     i2l2795:
  5653                           
  5654                           ;MCAL_layer/GPIO/gpio.c: 78:         ret = (Std_ReturnType)0x00;
  5655   00198A  0E00               	movlw	0
  5656   00198C  6E0A               	movwf	i2gpio_pin_write_logic@ret^0,c
  5657   00198E  EF36  F00D         	goto	i2l417
  5658   001992                     i2l2797:
  5659                           
  5660                           ;MCAL_layer/GPIO/gpio.c: 80:     {;MCAL_layer/GPIO/gpio.c: 81:         if(logic == HIGH)
  5661   001992  0403               	decf	i2gpio_pin_write_logic@logic^0,w,c
  5662   001994  A4D8               	btfss	status,2,c
  5663   001996  EFCF  F00C         	goto	i2u180_41
  5664   00199A  EFD1  F00C         	goto	i2u180_40
  5665   00199E                     i2u180_41:
  5666   00199E  EFFF  F00C         	goto	i2l2801
  5667   0019A2                     i2u180_40:
  5668   0019A2                     
  5669                           ;MCAL_layer/GPIO/gpio.c: 82:             (*lat_reg[Pin_Config->port] |= ((uint8)1 << Pin
      +                          _Config->pin));
  5670   0019A2  C001  FFD9         	movff	i2gpio_pin_write_logic@Pin_Config,fsr2l
  5671   0019A6  C002  FFDA         	movff	i2gpio_pin_write_logic@Pin_Config+1,fsr2h
  5672   0019AA  30DF               	rrcf	223,w,c
  5673   0019AC  32E8               	rrcf	wreg,f,c
  5674   0019AE  32E8               	rrcf	wreg,f,c
  5675   0019B0  0B07               	andlw	7
  5676   0019B2  6E04               	movwf	??i2_gpio_pin_write_logic^0,c
  5677   0019B4  0E01               	movlw	1
  5678   0019B6  6E05               	movwf	(??i2_gpio_pin_write_logic+1)^0,c
  5679   0019B8  2A04               	incf	??i2_gpio_pin_write_logic^0,f,c
  5680   0019BA  EFE1  F00C         	goto	i2u181_44
  5681   0019BE                     i2u181_45:
  5682   0019BE  90D8               	bcf	status,0,c
  5683   0019C0  3605               	rlcf	(??i2_gpio_pin_write_logic+1)^0,f,c
  5684   0019C2                     i2u181_44:
  5685   0019C2  2E04               	decfsz	??i2_gpio_pin_write_logic^0,f,c
  5686   0019C4  EFDF  F00C         	goto	i2u181_45
  5687   0019C8  C001  FFD9         	movff	i2gpio_pin_write_logic@Pin_Config,fsr2l
  5688   0019CC  C002  FFDA         	movff	i2gpio_pin_write_logic@Pin_Config+1,fsr2h
  5689   0019D0  50DF               	movf	223,w,c
  5690   0019D2  0B07               	andlw	7
  5691   0019D4  6E06               	movwf	(??i2_gpio_pin_write_logic+2)^0,c
  5692   0019D6  5006               	movf	(??i2_gpio_pin_write_logic+2)^0,w,c
  5693   0019D8  0D02               	mullw	2
  5694   0019DA  0E42               	movlw	low _lat_reg
  5695   0019DC  24F3               	addwf	243,w,c
  5696   0019DE  6ED9               	movwf	fsr2l,c
  5697   0019E0  0E00               	movlw	high _lat_reg
  5698   0019E2  20F4               	addwfc	prodh,w,c
  5699   0019E4  6EDA               	movwf	fsr2h,c
  5700   0019E6  CFDE F007          	movff	postinc2,??i2_gpio_pin_write_logic+3
  5701   0019EA  CFDD F008          	movff	postdec2,??i2_gpio_pin_write_logic+4
  5702   0019EE  C007  FFD9         	movff	??i2_gpio_pin_write_logic+3,fsr2l
  5703   0019F2  C008  FFDA         	movff	??i2_gpio_pin_write_logic+4,fsr2h
  5704   0019F6  5005               	movf	(??i2_gpio_pin_write_logic+1)^0,w,c
  5705   0019F8  12DF               	iorwf	indf2,f,c
  5706   0019FA  EF36  F00D         	goto	i2l417
  5707   0019FE                     i2l2801:
  5708   0019FE  C001  FFD9         	movff	i2gpio_pin_write_logic@Pin_Config,fsr2l
  5709   001A02  C002  FFDA         	movff	i2gpio_pin_write_logic@Pin_Config+1,fsr2h
  5710   001A06  30DF               	rrcf	223,w,c
  5711   001A08  32E8               	rrcf	wreg,f,c
  5712   001A0A  32E8               	rrcf	wreg,f,c
  5713   001A0C  0B07               	andlw	7
  5714   001A0E  6E04               	movwf	??i2_gpio_pin_write_logic^0,c
  5715   001A10  0E01               	movlw	1
  5716   001A12  6E05               	movwf	(??i2_gpio_pin_write_logic+1)^0,c
  5717   001A14  2A04               	incf	??i2_gpio_pin_write_logic^0,f,c
  5718   001A16  EF0F  F00D         	goto	i2u182_44
  5719   001A1A                     i2u182_45:
  5720   001A1A  90D8               	bcf	status,0,c
  5721   001A1C  3605               	rlcf	(??i2_gpio_pin_write_logic+1)^0,f,c
  5722   001A1E                     i2u182_44:
  5723   001A1E  2E04               	decfsz	??i2_gpio_pin_write_logic^0,f,c
  5724   001A20  EF0D  F00D         	goto	i2u182_45
  5725   001A24  5005               	movf	(??i2_gpio_pin_write_logic+1)^0,w,c
  5726   001A26  0AFF               	xorlw	255
  5727   001A28  6E06               	movwf	(??i2_gpio_pin_write_logic+2)^0,c
  5728   001A2A  C001  FFD9         	movff	i2gpio_pin_write_logic@Pin_Config,fsr2l
  5729   001A2E  C002  FFDA         	movff	i2gpio_pin_write_logic@Pin_Config+1,fsr2h
  5730   001A32  50DF               	movf	223,w,c
  5731   001A34  0B07               	andlw	7
  5732   001A36  6E07               	movwf	(??i2_gpio_pin_write_logic+3)^0,c
  5733   001A38  5007               	movf	(??i2_gpio_pin_write_logic+3)^0,w,c
  5734   001A3A  0D02               	mullw	2
  5735   001A3C  0E42               	movlw	low _lat_reg
  5736   001A3E  24F3               	addwf	243,w,c
  5737   001A40  6ED9               	movwf	fsr2l,c
  5738   001A42  0E00               	movlw	high _lat_reg
  5739   001A44  20F4               	addwfc	prodh,w,c
  5740   001A46  6EDA               	movwf	fsr2h,c
  5741   001A48  CFDE F008          	movff	postinc2,??i2_gpio_pin_write_logic+4
  5742   001A4C  CFDD F009          	movff	postdec2,??i2_gpio_pin_write_logic+5
  5743   001A50  C008  FFD9         	movff	??i2_gpio_pin_write_logic+4,fsr2l
  5744   001A54  C009  FFDA         	movff	??i2_gpio_pin_write_logic+5,fsr2h
  5745   001A58  5006               	movf	(??i2_gpio_pin_write_logic+2)^0,w,c
  5746   001A5A  16DF               	andwf	indf2,f,c
  5747   001A5C  50DF               	movf	indf2,w,c
  5748   001A5E  B4D8               	btfsc	status,2,c
  5749   001A60  EF34  F00D         	goto	i2u183_41
  5750   001A64  EF36  F00D         	goto	i2u183_40
  5751   001A68                     i2u183_41:
  5752   001A68  EFC5  F00C         	goto	i2l2795
  5753   001A6C                     i2u183_40:
  5754   001A6C                     i2l417:
  5755                           
  5756                           ;MCAL_layer/GPIO/gpio.c: 87:         return ret;
  5757   001A6C  500A               	movf	i2gpio_pin_write_logic@ret^0,w,c
  5758   001A6E  0012               	return		;funcret
  5759   001A70                     __end_ofi2_gpio_pin_write_logic:
  5760                           	callstack 0
  5761                           
  5762 ;; *************** function _get_value_INTX_interrupt *****************
  5763 ;; Defined at:
  5764 ;;		line 64 in file "ECU_layer/keypad/ecu_keypad.c"
  5765 ;; Parameters:    Size  Location     Type
  5766 ;;  keypad          2   10[COMRAM] PTR const struct .
  5767 ;;		 -> keypad(8), 
  5768 ;;  INTX            2   12[COMRAM] PTR const struct .
  5769 ;;		 -> INT2_obj(6), INT1_obj(6), INT0_obj(6), 
  5770 ;;  value           2   14[COMRAM] PTR unsigned char 
  5771 ;;		 -> rd_value(1), 
  5772 ;; Auto vars:     Size  Location     Type
  5773 ;;  cnt             1   20[COMRAM] unsigned char 
  5774 ;;  pin_row_st      1   19[COMRAM] enum E2968
  5775 ;;  ret             1    0        unsigned char 
  5776 ;; Return value:  Size  Location     Type
  5777 ;;                  1    wreg      unsigned char 
  5778 ;; Registers used:
  5779 ;;		wreg, fsr1l, fsr1h, fsr2l, fsr2h, status,2, status,0, prodl, prodh, cstack
  5780 ;; Tracked objects:
  5781 ;;		On entry : 0/0
  5782 ;;		On exit  : 0/0
  5783 ;;		Unchanged: 0/0
  5784 ;; Data sizes:     COMRAM   BANK0   BANK1   BANK2   BANK3   BANK4   BANK5   BANK6   BANK7   BANK8   BANK9  BANK10  BANK1
      +1  BANK12  BANK13  BANK14  BANK15
  5785 ;;      Params:         6       0       0       0       0       0       0       0       0       0       0       0       
      +0       0       0       0       0
  5786 ;;      Locals:         2       0       0       0       0       0       0       0       0       0       0       0       
      +0       0       0       0       0
  5787 ;;      Temps:          3       0       0       0       0       0       0       0       0       0       0       0       
      +0       0       0       0       0
  5788 ;;      Totals:        11       0       0       0       0       0       0       0       0       0       0       0       
      +0       0       0       0       0
  5789 ;;Total ram usage:       11 bytes
  5790 ;; Hardware stack levels used: 1
  5791 ;; Hardware stack levels required when called: 1
  5792 ;; This function calls:
  5793 ;;		_gpio_pin_read_logic
  5794 ;; This function is called by:
  5795 ;;		_burrun0_interrupt
  5796 ;;		_burrun1_interrupt
  5797 ;;		_burrun2_interrupt
  5798 ;; This function uses a non-reentrant model
  5799 ;;
  5800                           
  5801                           	psect	text39
  5802   001B44                     __ptext39:
  5803                           	callstack 0
  5804   001B44                     _get_value_INTX_interrupt:
  5805                           	callstack 21
  5806   001B44                     
  5807                           ;ECU_layer/keypad/ecu_keypad.c: 66:       Logic_t pin_row_st = LOW;
  5808   001B44  0E00               	movlw	0
  5809   001B46  6E14               	movwf	get_value_INTX_interrupt@pin_row_st^0,c
  5810   001B48                     
  5811                           ;ECU_layer/keypad/ecu_keypad.c: 67:     if(((void*)0) == keypad || ((void*)0) == value |
      +                          | ((void*)0) == INTX)
  5812   001B48  500B               	movf	get_value_INTX_interrupt@keypad^0,w,c
  5813   001B4A  100C               	iorwf	(get_value_INTX_interrupt@keypad+1)^0,w,c
  5814   001B4C  B4D8               	btfsc	status,2,c
  5815   001B4E  EFAB  F00D         	goto	i2u202_41
  5816   001B52  EFAD  F00D         	goto	i2u202_40
  5817   001B56                     i2u202_41:
  5818   001B56  EFBF  F00D         	goto	i2l2953
  5819   001B5A                     i2u202_40:
  5820   001B5A  500F               	movf	get_value_INTX_interrupt@value^0,w,c
  5821   001B5C  1010               	iorwf	(get_value_INTX_interrupt@value+1)^0,w,c
  5822   001B5E  B4D8               	btfsc	status,2,c
  5823   001B60  EFB4  F00D         	goto	i2u203_41
  5824   001B64  EFB6  F00D         	goto	i2u203_40
  5825   001B68                     i2u203_41:
  5826   001B68  EFBF  F00D         	goto	i2l2953
  5827   001B6C                     i2u203_40:
  5828   001B6C  500D               	movf	get_value_INTX_interrupt@INTX^0,w,c
  5829   001B6E  100E               	iorwf	(get_value_INTX_interrupt@INTX+1)^0,w,c
  5830   001B70  A4D8               	btfss	status,2,c
  5831   001B72  EFBD  F00D         	goto	i2u204_41
  5832   001B76  EFBF  F00D         	goto	i2u204_40
  5833   001B7A                     i2u204_41:
  5834   001B7A  EFC1  F00D         	goto	i2l2955
  5835   001B7E                     i2u204_40:
  5836   001B7E                     i2l2953:
  5837   001B7E  EF01  F00E         	goto	i2l135
  5838   001B82                     i2l2955:
  5839                           
  5840                           ;ECU_layer/keypad/ecu_keypad.c: 70:             for(uint8 cnt = 0; cnt < 4; cnt++)
  5841   001B82  0E00               	movlw	0
  5842   001B84  6E15               	movwf	get_value_INTX_interrupt@cnt^0,c
  5843   001B86                     i2l2961:
  5844   001B86  5015               	movf	get_value_INTX_interrupt@cnt^0,w,c
  5845   001B88  240B               	addwf	get_value_INTX_interrupt@keypad^0,w,c
  5846   001B8A  6E01               	movwf	gpio_pin_read_logic@Pin_Config^0,c
  5847   001B8C  0E00               	movlw	0
  5848   001B8E  200C               	addwfc	(get_value_INTX_interrupt@keypad+1)^0,w,c
  5849   001B90  6E02               	movwf	(gpio_pin_read_logic@Pin_Config+1)^0,c
  5850   001B92  0E14               	movlw	low get_value_INTX_interrupt@pin_row_st
  5851   001B94  6E03               	movwf	gpio_pin_read_logic@logic^0,c
  5852   001B96  0E00               	movlw	high get_value_INTX_interrupt@pin_row_st
  5853   001B98  6E04               	movwf	(gpio_pin_read_logic@logic+1)^0,c
  5854   001B9A  EC60  F00E         	call	_gpio_pin_read_logic	;wreg free
  5855   001B9E                     
  5856                           ;ECU_layer/keypad/ecu_keypad.c: 73:                 if(HIGH == pin_row_st)
  5857   001B9E  0414               	decf	get_value_INTX_interrupt@pin_row_st^0,w,c
  5858   001BA0  A4D8               	btfss	status,2,c
  5859   001BA2  EFD5  F00D         	goto	i2u205_41
  5860   001BA6  EFD7  F00D         	goto	i2u205_40
  5861   001BAA                     i2u205_41:
  5862   001BAA  EFF6  F00D         	goto	i2l2967
  5863   001BAE                     i2u205_40:
  5864   001BAE                     
  5865                           ;ECU_layer/keypad/ecu_keypad.c: 74:                     *value = keypad_val[cnt][INTX->i
      +                          nterrupt_pin.pin];
  5866   001BAE  EE20 F005          	lfsr	2,5
  5867   001BB2  500D               	movf	get_value_INTX_interrupt@INTX^0,w,c
  5868   001BB4  26D9               	addwf	fsr2l,f,c
  5869   001BB6  500E               	movf	(get_value_INTX_interrupt@INTX+1)^0,w,c
  5870   001BB8  22DA               	addwfc	fsr2h,f,c
  5871   001BBA  30DF               	rrcf	223,w,c
  5872   001BBC  32E8               	rrcf	wreg,f,c
  5873   001BBE  32E8               	rrcf	wreg,f,c
  5874   001BC0  0B07               	andlw	7
  5875   001BC2  6E11               	movwf	??_get_value_INTX_interrupt^0,c
  5876   001BC4  5015               	movf	get_value_INTX_interrupt@cnt^0,w,c
  5877   001BC6  0D04               	mullw	4
  5878   001BC8  0E80               	movlw	low _keypad_val
  5879   001BCA  24F3               	addwf	243,w,c
  5880   001BCC  6E12               	movwf	(??_get_value_INTX_interrupt+1)^0,c
  5881   001BCE  0E00               	movlw	high _keypad_val
  5882   001BD0  20F4               	addwfc	prodh,w,c
  5883   001BD2  6E13               	movwf	(??_get_value_INTX_interrupt+2)^0,c
  5884   001BD4  5011               	movf	??_get_value_INTX_interrupt^0,w,c
  5885   001BD6  2412               	addwf	(??_get_value_INTX_interrupt+1)^0,w,c
  5886   001BD8  6ED9               	movwf	fsr2l,c
  5887   001BDA  0E00               	movlw	0
  5888   001BDC  2013               	addwfc	(??_get_value_INTX_interrupt+2)^0,w,c
  5889   001BDE  6EDA               	movwf	fsr2h,c
  5890   001BE0  C00F  FFE1         	movff	get_value_INTX_interrupt@value,fsr1l
  5891   001BE4  C010  FFE2         	movff	get_value_INTX_interrupt@value+1,fsr1h
  5892   001BE8  CFDF FFE7          	movff	indf2,indf1
  5893   001BEC                     i2l2967:
  5894                           
  5895                           ;ECU_layer/keypad/ecu_keypad.c: 75:                 pin_row_st = LOW;
  5896   001BEC  0E00               	movlw	0
  5897   001BEE  6E14               	movwf	get_value_INTX_interrupt@pin_row_st^0,c
  5898   001BF0                     
  5899                           ;ECU_layer/keypad/ecu_keypad.c: 76:             }
  5900   001BF0  2A15               	incf	get_value_INTX_interrupt@cnt^0,f,c
  5901   001BF2  0E03               	movlw	3
  5902   001BF4  6415               	cpfsgt	get_value_INTX_interrupt@cnt^0,c
  5903   001BF6  EFFF  F00D         	goto	i2u206_41
  5904   001BFA  EF01  F00E         	goto	i2u206_40
  5905   001BFE                     i2u206_41:
  5906   001BFE  EFC3  F00D         	goto	i2l2961
  5907   001C02                     i2u206_40:
  5908   001C02                     i2l135:
  5909   001C02  0012               	return		;funcret
  5910   001C04                     __end_of_get_value_INTX_interrupt:
  5911                           	callstack 0
  5912                           
  5913 ;; *************** function _gpio_pin_read_logic *****************
  5914 ;; Defined at:
  5915 ;;		line 99 in file "MCAL_layer/GPIO/gpio.c"
  5916 ;; Parameters:    Size  Location     Type
  5917 ;;  Pin_Config      2    0[COMRAM] PTR const struct .
  5918 ;;		 -> keypad.keyad_row_pin(4), keypad(8), 
  5919 ;;  logic           2    2[COMRAM] PTR enum E2968
  5920 ;;		 -> get_value_RBX_interrupt@pin_row_st(1), get_value_INTX_interrupt@pin_row_st(1), get_value@pin_colm_st(1), 
  5921 ;; Auto vars:     Size  Location     Type
  5922 ;;  ret             1    9[COMRAM] unsigned char 
  5923 ;; Return value:  Size  Location     Type
  5924 ;;                  1    wreg      unsigned char 
  5925 ;; Registers used:
  5926 ;;		wreg, fsr2l, fsr2h, status,2, status,0, prodl, prodh
  5927 ;; Tracked objects:
  5928 ;;		On entry : 0/0
  5929 ;;		On exit  : 0/0
  5930 ;;		Unchanged: 0/0
  5931 ;; Data sizes:     COMRAM   BANK0   BANK1   BANK2   BANK3   BANK4   BANK5   BANK6   BANK7   BANK8   BANK9  BANK10  BANK1
      +1  BANK12  BANK13  BANK14  BANK15
  5932 ;;      Params:         4       0       0       0       0       0       0       0       0       0       0       0       
      +0       0       0       0       0
  5933 ;;      Locals:         1       0       0       0       0       0       0       0       0       0       0       0       
      +0       0       0       0       0
  5934 ;;      Temps:          5       0       0       0       0       0       0       0       0       0       0       0       
      +0       0       0       0       0
  5935 ;;      Totals:        10       0       0       0       0       0       0       0       0       0       0       0       
      +0       0       0       0       0
  5936 ;;Total ram usage:       10 bytes
  5937 ;; Hardware stack levels used: 1
  5938 ;; This function calls:
  5939 ;;		Nothing
  5940 ;; This function is called by:
  5941 ;;		_get_value_INTX_interrupt
  5942 ;;		_get_value_RBX_interrupt
  5943 ;;		_get_value
  5944 ;; This function uses a non-reentrant model
  5945 ;;
  5946                           
  5947                           	psect	text40
  5948   001CC0                     __ptext40:
  5949                           	callstack 0
  5950   001CC0                     _gpio_pin_read_logic:
  5951                           	callstack 21
  5952   001CC0                     
  5953                           ;MCAL_layer/GPIO/gpio.c: 100:        Std_ReturnType ret = (Std_ReturnType)0x01;
  5954   001CC0  0E01               	movlw	1
  5955   001CC2  6E0A               	movwf	gpio_pin_read_logic@ret^0,c
  5956   001CC4                     
  5957                           ;MCAL_layer/GPIO/gpio.c: 101:     if(((void*)0) == Pin_Config || Pin_Config->pin > 8)
  5958   001CC4  5001               	movf	gpio_pin_read_logic@Pin_Config^0,w,c
  5959   001CC6  1002               	iorwf	(gpio_pin_read_logic@Pin_Config+1)^0,w,c
  5960   001CC8  B4D8               	btfsc	status,2,c
  5961   001CCA  EF69  F00E         	goto	i2u190_41
  5962   001CCE  EF6B  F00E         	goto	i2u190_40
  5963   001CD2                     i2u190_41:
  5964   001CD2  EF7C  F00E         	goto	i2l2835
  5965   001CD6                     i2u190_40:
  5966   001CD6  C001  FFD9         	movff	gpio_pin_read_logic@Pin_Config,fsr2l
  5967   001CDA  C002  FFDA         	movff	gpio_pin_read_logic@Pin_Config+1,fsr2h
  5968   001CDE  30DF               	rrcf	223,w,c
  5969   001CE0  32E8               	rrcf	wreg,f,c
  5970   001CE2  32E8               	rrcf	wreg,f,c
  5971   001CE4  0B07               	andlw	7
  5972   001CE6  6E05               	movwf	??_gpio_pin_read_logic^0,c
  5973   001CE8  0E08               	movlw	8
  5974   001CEA  6405               	cpfsgt	??_gpio_pin_read_logic^0,c
  5975   001CEC  EF7A  F00E         	goto	i2u191_41
  5976   001CF0  EF7C  F00E         	goto	i2u191_40
  5977   001CF4                     i2u191_41:
  5978   001CF4  EF80  F00E         	goto	i2l2837
  5979   001CF8                     i2u191_40:
  5980   001CF8                     i2l2835:
  5981                           
  5982                           ;MCAL_layer/GPIO/gpio.c: 102:         ret = (Std_ReturnType)0x00;
  5983   001CF8  0E00               	movlw	0
  5984   001CFA  6E0A               	movwf	gpio_pin_read_logic@ret^0,c
  5985   001CFC  EFB1  F00E         	goto	i2l2839
  5986   001D00                     i2l2837:
  5987                           
  5988                           ;MCAL_layer/GPIO/gpio.c: 104:     {;MCAL_layer/GPIO/gpio.c: 105:         *logic = (*port
      +                          _reg[Pin_Config->port] >> Pin_Config->pin & (uint8)1);
  5989   001D00  C001  FFD9         	movff	gpio_pin_read_logic@Pin_Config,fsr2l
  5990   001D04  C002  FFDA         	movff	gpio_pin_read_logic@Pin_Config+1,fsr2h
  5991   001D08  30DF               	rrcf	223,w,c
  5992   001D0A  32E8               	rrcf	wreg,f,c
  5993   001D0C  32E8               	rrcf	wreg,f,c
  5994   001D0E  0B07               	andlw	7
  5995   001D10  6E05               	movwf	??_gpio_pin_read_logic^0,c
  5996   001D12  C001  FFD9         	movff	gpio_pin_read_logic@Pin_Config,fsr2l
  5997   001D16  C002  FFDA         	movff	gpio_pin_read_logic@Pin_Config+1,fsr2h
  5998   001D1A  50DF               	movf	223,w,c
  5999   001D1C  0B07               	andlw	7
  6000   001D1E  6E06               	movwf	(??_gpio_pin_read_logic+1)^0,c
  6001   001D20  5006               	movf	(??_gpio_pin_read_logic+1)^0,w,c
  6002   001D22  0D02               	mullw	2
  6003   001D24  0E90               	movlw	low _port_reg
  6004   001D26  24F3               	addwf	243,w,c
  6005   001D28  6ED9               	movwf	fsr2l,c
  6006   001D2A  0E00               	movlw	high _port_reg
  6007   001D2C  20F4               	addwfc	prodh,w,c
  6008   001D2E  6EDA               	movwf	fsr2h,c
  6009   001D30  CFDE F007          	movff	postinc2,??_gpio_pin_read_logic+2
  6010   001D34  CFDD F008          	movff	postdec2,??_gpio_pin_read_logic+3
  6011   001D38  C007  FFD9         	movff	??_gpio_pin_read_logic+2,fsr2l
  6012   001D3C  C008  FFDA         	movff	??_gpio_pin_read_logic+3,fsr2h
  6013   001D40  50DF               	movf	indf2,w,c
  6014   001D42  6E09               	movwf	(??_gpio_pin_read_logic+4)^0,c
  6015   001D44  2A05               	incf	??_gpio_pin_read_logic^0,f,c
  6016   001D46  EFA7  F00E         	goto	i2u192_44
  6017   001D4A                     i2u192_45:
  6018   001D4A  90D8               	bcf	status,0,c
  6019   001D4C  3209               	rrcf	(??_gpio_pin_read_logic+4)^0,f,c
  6020   001D4E                     i2u192_44:
  6021   001D4E  2E05               	decfsz	??_gpio_pin_read_logic^0,f,c
  6022   001D50  EFA5  F00E         	goto	i2u192_45
  6023   001D54  5009               	movf	(??_gpio_pin_read_logic+4)^0,w,c
  6024   001D56  0B01               	andlw	1
  6025   001D58  C003  FFD9         	movff	gpio_pin_read_logic@logic,fsr2l
  6026   001D5C  C004  FFDA         	movff	gpio_pin_read_logic@logic+1,fsr2h
  6027   001D60  6EDF               	movwf	indf2,c
  6028   001D62                     i2l2839:
  6029                           
  6030                           ;MCAL_layer/GPIO/gpio.c: 107:         return ret;
  6031   001D62  500A               	movf	gpio_pin_read_logic@ret^0,w,c
  6032   001D64  0012               	return		;funcret
  6033   001D66                     __end_of_gpio_pin_read_logic:
  6034                           	callstack 0
  6035                           
  6036 ;; *************** function _EEPROM_Read_Data *****************
  6037 ;; Defined at:
  6038 ;;		line 41 in file "MCAL_layer/EEPROM/EEPROM.c"
  6039 ;; Parameters:    Size  Location     Type
  6040 ;;  addrees         2    0[COMRAM] unsigned short 
  6041 ;;  data            2    2[COMRAM] PTR unsigned char 
  6042 ;;		 -> val(1), 
  6043 ;; Auto vars:     Size  Location     Type
  6044 ;;  ret             1    0        unsigned char 
  6045 ;; Return value:  Size  Location     Type
  6046 ;;                  1    wreg      unsigned char 
  6047 ;; Registers used:
  6048 ;;		wreg, fsr2l, fsr2h, status,2, status,0
  6049 ;; Tracked objects:
  6050 ;;		On entry : 0/0
  6051 ;;		On exit  : 0/0
  6052 ;;		Unchanged: 0/0
  6053 ;; Data sizes:     COMRAM   BANK0   BANK1   BANK2   BANK3   BANK4   BANK5   BANK6   BANK7   BANK8   BANK9  BANK10  BANK1
      +1  BANK12  BANK13  BANK14  BANK15
  6054 ;;      Params:         4       0       0       0       0       0       0       0       0       0       0       0       
      +0       0       0       0       0
  6055 ;;      Locals:         0       0       0       0       0       0       0       0       0       0       0       0       
      +0       0       0       0       0
  6056 ;;      Temps:          0       0       0       0       0       0       0       0       0       0       0       0       
      +0       0       0       0       0
  6057 ;;      Totals:         4       0       0       0       0       0       0       0       0       0       0       0       
      +0       0       0       0       0
  6058 ;;Total ram usage:        4 bytes
  6059 ;; Hardware stack levels used: 1
  6060 ;; This function calls:
  6061 ;;		Nothing
  6062 ;; This function is called by:
  6063 ;;		_burrun0_interrupt
  6064 ;;		_burrun1_interrupt
  6065 ;;		_burrun2_interrupt
  6066 ;;		_burrun3_interrupt
  6067 ;; This function uses a non-reentrant model
  6068 ;;
  6069                           
  6070                           	psect	text41
  6071   0027FC                     __ptext41:
  6072                           	callstack 0
  6073   0027FC                     _EEPROM_Read_Data:
  6074                           	callstack 22
  6075   0027FC                     
  6076                           ;MCAL_layer/EEPROM/EEPROM.c: 43:     if(((void*)0) == data)
  6077   0027FC  5003               	movf	EEPROM_Read_Data@data^0,w,c
  6078   0027FE  1004               	iorwf	(EEPROM_Read_Data@data+1)^0,w,c
  6079   002800  A4D8               	btfss	status,2,c
  6080   002802  EF05  F014         	goto	i2u207_41
  6081   002806  EF07  F014         	goto	i2u207_40
  6082   00280A                     i2u207_41:
  6083   00280A  EF09  F014         	goto	i2l2979
  6084   00280E                     i2u207_40:
  6085   00280E                     
  6086                           ;MCAL_layer/EEPROM/EEPROM.c: 46:     }
  6087   00280E  EF19  F014         	goto	i2l357
  6088   002812                     i2l2979:
  6089                           
  6090                           ;MCAL_layer/EEPROM/EEPROM.c: 48:         EEADRH = (uint8)((addrees >> 8) & 0x03);
  6091   002812  5002               	movf	(EEPROM_Read_Data@addrees+1)^0,w,c
  6092   002814  0B03               	andlw	3
  6093   002816  6EAA               	movwf	170,c	;volatile
  6094   002818                     
  6095                           ;MCAL_layer/EEPROM/EEPROM.c: 49:         EEADR = (uint8)(addrees & 0xFF);
  6096   002818  C001  FFA9         	movff	EEPROM_Read_Data@addrees,4009	;volatile
  6097   00281C                     
  6098                           ;MCAL_layer/EEPROM/EEPROM.c: 51:         (EECON1bits.EEPGD = 0);
  6099   00281C  9EA6               	bcf	166,7,c	;volsfr
  6100   00281E                     
  6101                           ;MCAL_layer/EEPROM/EEPROM.c: 52:         (EECON1bits.CFGS = 0);
  6102   00281E  9CA6               	bcf	166,6,c	;volsfr
  6103   002820                     
  6104                           ;MCAL_layer/EEPROM/EEPROM.c: 54:         (EECON1bits.RD = 1);
  6105   002820  80A6               	bsf	166,0,c	;volsfr
  6106   002822                     
  6107                           ;MCAL_layer/EEPROM/EEPROM.c: 56:         __nop();
  6108   002822  F000               	nop	
  6109   002824                     
  6110                           ;MCAL_layer/EEPROM/EEPROM.c: 57:         __nop();
  6111   002824  F000               	nop	
  6112   002826                     
  6113                           ;MCAL_layer/EEPROM/EEPROM.c: 59:         *data = EEDATA;
  6114   002826  C003  FFD9         	movff	EEPROM_Read_Data@data,fsr2l
  6115   00282A  C004  FFDA         	movff	EEPROM_Read_Data@data+1,fsr2h
  6116   00282E  CFA8 FFDF          	movff	4008,indf2	;volatile
  6117   002832                     i2l357:
  6118   002832  0012               	return		;funcret
  6119   002834                     __end_of_EEPROM_Read_Data:
  6120                           	callstack 0
  6121                           
  6122                           	psect	text42
  6123   000000                     __ptext42:
  6124                           	callstack 0
  6125   000000                     
  6126                           	psect	rparam
  6127   000000                     
  6128                           	psect	temp
  6129   00005D                     btemp:
  6130                           	callstack 0
  6131   00005D                     	ds	1
  6132   000000                     int$flags	set	btemp
  6133   000000                     wtemp8	set	btemp+1
  6134   000000                     ttemp5	set	btemp+1
  6135   000000                     ttemp6	set	btemp+4
  6136   000000                     ttemp7	set	btemp+8
  6137                           
  6138                           	psect	config
  6139                           
  6140                           ; Padding undefined space
  6141   300000                     	org	3145728
  6142   300000  FF                 	db	255
  6143                           
  6144                           ;Config register CONFIG1H @ 0x300001
  6145                           ;	Oscillator Selection bits
  6146                           ;	OSC = HS, HS oscillator
  6147                           ;	Fail-Safe Clock Monitor Enable bit
  6148                           ;	FCMEN = OFF, Fail-Safe Clock Monitor disabled
  6149                           ;	Internal/External Oscillator Switchover bit
  6150                           ;	IESO = OFF, Oscillator Switchover mode disabled
  6151   300001                     	org	3145729
  6152   300001  02                 	db	2
  6153                           
  6154                           ;Config register CONFIG2L @ 0x300002
  6155                           ;	Power-up Timer Enable bit
  6156                           ;	PWRT = OFF, PWRT disabled
  6157                           ;	Brown-out Reset Enable bits
  6158                           ;	BOREN = OFF, Brown-out Reset disabled in hardware and software
  6159                           ;	Brown Out Reset Voltage bits
  6160                           ;	BORV = 1, 
  6161   300002                     	org	3145730
  6162   300002  09                 	db	9
  6163                           
  6164                           ;Config register CONFIG2H @ 0x300003
  6165                           ;	Watchdog Timer Enable bit
  6166                           ;	WDT = OFF, WDT disabled (control is placed on the SWDTEN bit)
  6167                           ;	Watchdog Timer Postscale Select bits
  6168                           ;	WDTPS = 32768, 1:32768
  6169   300003                     	org	3145731
  6170   300003  1E                 	db	30
  6171                           
  6172                           ; Padding undefined space
  6173   300004                     	org	3145732
  6174   300004  FF                 	db	255
  6175                           
  6176                           ;Config register CONFIG3H @ 0x300005
  6177                           ;	CCP2 MUX bit
  6178                           ;	CCP2MX = PORTC, CCP2 input/output is multiplexed with RC1
  6179                           ;	PORTB A/D Enable bit
  6180                           ;	PBADEN = OFF, PORTB<4:0> pins are configured as digital I/O on Reset
  6181                           ;	Low-Power Timer1 Oscillator Enable bit
  6182                           ;	LPT1OSC = OFF, Timer1 configured for higher power operation
  6183                           ;	MCLR Pin Enable bit
  6184                           ;	MCLRE = ON, MCLR pin enabled; RE3 input pin disabled
  6185   300005                     	org	3145733
  6186   300005  81                 	db	129
  6187                           
  6188                           ;Config register CONFIG4L @ 0x300006
  6189                           ;	Stack Full/Underflow Reset Enable bit
  6190                           ;	STVREN = ON, Stack full/underflow will cause Reset
  6191                           ;	Single-Supply ICSP Enable bit
  6192                           ;	LVP = OFF, Single-Supply ICSP disabled
  6193                           ;	Extended Instruction Set Enable bit
  6194                           ;	XINST = OFF, Instruction set extension and Indexed Addressing mode disabled (Legacy mo
      +                          de)
  6195                           ;	Background Debugger Enable bit
  6196                           ;	DEBUG = 0x1, unprogrammed default
  6197   300006                     	org	3145734
  6198   300006  81                 	db	129
  6199                           
  6200                           ; Padding undefined space
  6201   300007                     	org	3145735
  6202   300007  FF                 	db	255
  6203                           
  6204                           ;Config register CONFIG5L @ 0x300008
  6205                           ;	Code Protection bit
  6206                           ;	CP0 = OFF, Block 0 (000800-003FFFh) not code-protected
  6207                           ;	Code Protection bit
  6208                           ;	CP1 = OFF, Block 1 (004000-007FFFh) not code-protected
  6209                           ;	Code Protection bit
  6210                           ;	CP2 = OFF, Block 2 (008000-00BFFFh) not code-protected
  6211                           ;	Code Protection bit
  6212                           ;	CP3 = OFF, Block 3 (00C000-00FFFFh) not code-protected
  6213   300008                     	org	3145736
  6214   300008  0F                 	db	15
  6215                           
  6216                           ;Config register CONFIG5H @ 0x300009
  6217                           ;	Boot Block Code Protection bit
  6218                           ;	CPB = OFF, Boot block (000000-0007FFh) not code-protected
  6219                           ;	Data EEPROM Code Protection bit
  6220                           ;	CPD = OFF, Data EEPROM not code-protected
  6221   300009                     	org	3145737
  6222   300009  C0                 	db	192
  6223                           
  6224                           ;Config register CONFIG6L @ 0x30000A
  6225                           ;	Write Protection bit
  6226                           ;	WRT0 = OFF, Block 0 (000800-003FFFh) not write-protected
  6227                           ;	Write Protection bit
  6228                           ;	WRT1 = OFF, Block 1 (004000-007FFFh) not write-protected
  6229                           ;	Write Protection bit
  6230                           ;	WRT2 = OFF, Block 2 (008000-00BFFFh) not write-protected
  6231                           ;	Write Protection bit
  6232                           ;	WRT3 = OFF, Block 3 (00C000-00FFFFh) not write-protected
  6233   30000A                     	org	3145738
  6234   30000A  0F                 	db	15
  6235                           
  6236                           ;Config register CONFIG6H @ 0x30000B
  6237                           ;	Configuration Register Write Protection bit
  6238                           ;	WRTC = OFF, Configuration registers (300000-3000FFh) not write-protected
  6239                           ;	Boot Block Write Protection bit
  6240                           ;	WRTB = OFF, Boot Block (000000-0007FFh) not write-protected
  6241                           ;	Data EEPROM Write Protection bit
  6242                           ;	WRTD = OFF, Data EEPROM not write-protected
  6243   30000B                     	org	3145739
  6244   30000B  E0                 	db	224
  6245                           
  6246                           ;Config register CONFIG7L @ 0x30000C
  6247                           ;	Table Read Protection bit
  6248                           ;	EBTR0 = OFF, Block 0 (000800-003FFFh) not protected from table reads executed in other
      +                           blocks
  6249                           ;	Table Read Protection bit
  6250                           ;	EBTR1 = OFF, Block 1 (004000-007FFFh) not protected from table reads executed in other
      +                           blocks
  6251                           ;	Table Read Protection bit
  6252                           ;	EBTR2 = OFF, Block 2 (008000-00BFFFh) not protected from table reads executed in other
      +                           blocks
  6253                           ;	Table Read Protection bit
  6254                           ;	EBTR3 = OFF, Block 3 (00C000-00FFFFh) not protected from table reads executed in other
      +                           blocks
  6255   30000C                     	org	3145740
  6256   30000C  0F                 	db	15
  6257                           
  6258                           ;Config register CONFIG7H @ 0x30000D
  6259                           ;	Boot Block Table Read Protection bit
  6260                           ;	EBTRB = OFF, Boot Block (000000-0007FFh) not protected from table reads executed in ot
      +                          her blocks
  6261   30000D                     	org	3145741
  6262   30000D  40                 	db	64
  6263                           tosu	equ	0xFFF
  6264                           tosh	equ	0xFFE
  6265                           tosl	equ	0xFFD
  6266                           stkptr	equ	0xFFC
  6267                           pclatu	equ	0xFFB
  6268                           pclath	equ	0xFFA
  6269                           pcl	equ	0xFF9
  6270                           tblptru	equ	0xFF8
  6271                           tblptrh	equ	0xFF7
  6272                           tblptrl	equ	0xFF6
  6273                           tablat	equ	0xFF5
  6274                           prodh	equ	0xFF4
  6275                           prodl	equ	0xFF3
  6276                           indf0	equ	0xFEF
  6277                           postinc0	equ	0xFEE
  6278                           postdec0	equ	0xFED
  6279                           preinc0	equ	0xFEC
  6280                           plusw0	equ	0xFEB
  6281                           fsr0h	equ	0xFEA
  6282                           fsr0l	equ	0xFE9
  6283                           wreg	equ	0xFE8
  6284                           indf1	equ	0xFE7
  6285                           postinc1	equ	0xFE6
  6286                           postdec1	equ	0xFE5
  6287                           preinc1	equ	0xFE4
  6288                           plusw1	equ	0xFE3
  6289                           fsr1h	equ	0xFE2
  6290                           fsr1l	equ	0xFE1
  6291                           bsr	equ	0xFE0
  6292                           indf2	equ	0xFDF
  6293                           postinc2	equ	0xFDE
  6294                           postdec2	equ	0xFDD
  6295                           preinc2	equ	0xFDC
  6296                           plusw2	equ	0xFDB
  6297                           fsr2h	equ	0xFDA
  6298                           fsr2l	equ	0xFD9
  6299                           status	equ	0xFD8

Data Sizes:
    Strings     60
    Constant    0
    Data        92
    BSS         47
    Persistent  0
    Stack       0

Auto Spaces:
    Space          Size  Autos    Used
    COMRAM          126     35      92
    BANK0           128     33     115
    BANK1           256      0       0
    BANK2           256      0       0
    BANK3           256      0       0
    BANK4           256      0       0
    BANK5           256      0       0
    BANK6           256      0       0
    BANK7           256      0       0
    BANK8           256      0       0
    BANK9           256      0       0
    BANK10          256      0       0
    BANK11          256      0       0
    BANK12          256      0       0
    BANK13          256      0       0
    BANK14          256      0       0
    BANK15          128      0       0

Pointer List with Targets:

    vfprintf$2	PTR PTR void  size(2) Largest target is 2
		 -> sprintf@ap(COMRAM[2]), 

    vfprintf$1	PTR const unsigned char  size(2) Largest target is 3
		 -> STR_6(CODE[3]), STR_5(CODE[3]), STR_4(CODE[3]), 

    vfprintf$0	PTR struct _IO_FILE size(2) Largest target is 12
		 -> sprintf@f(COMRAM[12]), 

    S1854$source	PTR const unsigned char  size(2) Largest target is 0

    f...source	PTR const unsigned char  size(2) Largest target is 0

    S1854$buffer	PTR unsigned char  size(2) Largest target is 0

    f...buffer	PTR unsigned char  size(2) Largest target is 0

    RB7_InterruptHandler_LOW	PTR FTN()void  size(2) Largest target is 1
		 -> NULL(), 

    RB7_InterruptHandler_HIGH	PTR FTN()void  size(2) Largest target is 1
		 -> NULL(), burrun3_interrupt(), 

    RB6_InterruptHandler_LOW	PTR FTN()void  size(2) Largest target is 1
		 -> NULL(), 

    RB6_InterruptHandler_HIGH	PTR FTN()void  size(2) Largest target is 1
		 -> NULL(), burrun3_interrupt(), 

    RB5_InterruptHandler_LOW	PTR FTN()void  size(2) Largest target is 1
		 -> NULL(), 

    RB5_InterruptHandler_HIGH	PTR FTN()void  size(2) Largest target is 1
		 -> NULL(), burrun3_interrupt(), 

    RB4_InterruptHandler_LOW	PTR FTN()void  size(2) Largest target is 1
		 -> NULL(), 

    RB4_InterruptHandler_HIGH	PTR FTN()void  size(2) Largest target is 1
		 -> NULL(), burrun3_interrupt(), 

    Interrupt_RBX_intialize@int_obj.EXT_InterruptHandler_LOW	PTR FTN()void  size(2) Largest target is 1
		 -> NULL(), 

    Interrupt_RBX_intialize@int_obj.EXT_InterruptHandler_HIGH	PTR FTN()void  size(2) Largest target is 1
		 -> burrun3_interrupt(), 

    Interrupt_RBX_intialize@int_obj	PTR const struct . size(2) Largest target is 6
		 -> RB_obj_1(BANK0[6]), 

    INTX_SET_HUNDLER_INTERRUPT@int_obj.externalfunction	PTR FTN()void  size(2) Largest target is 1
		 -> burrun2_interrupt(), burrun1_interrupt(), burrun0_interrupt(), 

    INTX_SET_HUNDLER_INTERRUPT@int_obj	PTR const struct . size(2) Largest target is 6
		 -> INT2_obj(BANK0[6]), INT1_obj(BANK0[6]), INT0_obj(BANK0[6]), 

    INT2_SET_HUNDLER_INTERRUPT@interrupt_hunder	PTR FTN()void  size(2) Largest target is 1
		 -> burrun2_interrupt(), burrun1_interrupt(), burrun0_interrupt(), 

    INT1_SET_HUNDLER_INTERRUPT@interrupt_hunder	PTR FTN()void  size(2) Largest target is 1
		 -> burrun2_interrupt(), burrun1_interrupt(), burrun0_interrupt(), 

    INT0_SET_HUNDLER_INTERRUPT@interrupt_hunder	PTR FTN()void  size(2) Largest target is 1
		 -> burrun2_interrupt(), burrun1_interrupt(), burrun0_interrupt(), 

    INT2_HUNDLER_INTERRUPT	PTR FTN()void  size(2) Largest target is 1
		 -> NULL(), burrun2_interrupt(), burrun1_interrupt(), burrun0_interrupt(), 

    INT1_HUNDLER_INTERRUPT	PTR FTN()void  size(2) Largest target is 1
		 -> NULL(), burrun2_interrupt(), burrun1_interrupt(), burrun0_interrupt(), 

    INT0_HUNDLER_INTERRUPT	PTR FTN()void  size(2) Largest target is 1
		 -> NULL(), burrun2_interrupt(), burrun1_interrupt(), burrun0_interrupt(), 

    Interrupt_INTx_Clear_Flag@int_obj.externalfunction	PTR FTN()void  size(2) Largest target is 1
		 -> burrun2_interrupt(), burrun1_interrupt(), burrun0_interrupt(), 

    Interrupt_INTx_Clear_Flag@int_obj	PTR const struct . size(2) Largest target is 6
		 -> INT2_obj(BANK0[6]), INT1_obj(BANK0[6]), INT0_obj(BANK0[6]), 

    Interrupt_INTx_Pin_Init@int_obj.externalfunction	PTR FTN()void  size(2) Largest target is 1
		 -> burrun2_interrupt(), burrun1_interrupt(), burrun0_interrupt(), 

    Interrupt_INTx_Pin_Init@int_obj	PTR const struct . size(2) Largest target is 6
		 -> INT2_obj(BANK0[6]), INT1_obj(BANK0[6]), INT0_obj(BANK0[6]), 

    Interrupt_INTx_Edge_Init@int_obj.externalfunction	PTR FTN()void  size(2) Largest target is 1
		 -> burrun2_interrupt(), burrun1_interrupt(), burrun0_interrupt(), 

    Interrupt_INTx_Edge_Init@int_obj	PTR const struct . size(2) Largest target is 6
		 -> INT2_obj(BANK0[6]), INT1_obj(BANK0[6]), INT0_obj(BANK0[6]), 

    Interrupt_INTx_Priority_Init@int_obj.externalfunction	PTR FTN()void  size(2) Largest target is 1
		 -> burrun2_interrupt(), burrun1_interrupt(), burrun0_interrupt(), 

    Interrupt_INTx_Disable@int_obj.externalfunction	PTR FTN()void  size(2) Largest target is 1
		 -> burrun2_interrupt(), burrun1_interrupt(), burrun0_interrupt(), 

    Interrupt_INTx_Disable@int_obj	PTR const struct . size(2) Largest target is 6
		 -> INT2_obj(BANK0[6]), INT1_obj(BANK0[6]), INT0_obj(BANK0[6]), 

    Interrupt_INTx_Enable@int_obj.externalfunction	PTR FTN()void  size(2) Largest target is 1
		 -> burrun2_interrupt(), burrun1_interrupt(), burrun0_interrupt(), 

    Interrupt_INTx_Enable@int_obj	PTR const struct . size(2) Largest target is 6
		 -> INT2_obj(BANK0[6]), INT1_obj(BANK0[6]), INT0_obj(BANK0[6]), 

    Interrupt_INTX_intialize@int_obj	PTR const struct . size(2) Largest target is 6
		 -> INT2_obj(BANK0[6]), INT1_obj(BANK0[6]), INT0_obj(BANK0[6]), 

    gpio_pin_intialize@Pin_Config	PTR const struct . size(2) Largest target is 8
		 -> lcd_4bit.lcd_pin(COMRAM[4]), lcd_4bit(COMRAM[6]), keypad.keyad_row_pin(COMRAM[4]), keypad(COMRAM[8]), 

    gpio_pin_read_logic@logic	PTR enum E2968 size(2) Largest target is 1
		 -> get_value_RBX_interrupt@pin_row_st(COMRAM[1]), get_value_INTX_interrupt@pin_row_st(COMRAM[1]), get_value@pin_colm_st(COMRAM[1]), 

    gpio_pin_read_logic@Pin_Config	PTR const struct . size(2) Largest target is 8
		 -> keypad.keyad_row_pin(COMRAM[4]), keypad(COMRAM[8]), 

    gpio_pin_write_logic@Pin_Config	PTR const struct . size(2) Largest target is 8
		 -> lcd_4bit.lcd_pin(COMRAM[4]), lcd_4bit(COMRAM[6]), keypad.keyad_row_pin(COMRAM[4]), keypad(COMRAM[8]), 

    gpio_pin_direction_intialize@Pin_Config	PTR const struct . size(2) Largest target is 8
		 -> RB_obj_1(BANK0[6]), INT2_obj(BANK0[6]), INT1_obj(BANK0[6]), INT0_obj(BANK0[6]), 
		 -> lcd_4bit.lcd_pin(COMRAM[4]), lcd_4bit(COMRAM[6]), keypad.keyad_column_pin(COMRAM[4]), keypad.keyad_row_pin(COMRAM[4]), 
		 -> keypad(COMRAM[8]), 

    port_reg	PTR volatile unsigned char [5] size(2) Largest target is 1
		 -> PORTE(BITBIGSFRlllll[1]), PORTD(BITBIGSFRlllll[1]), PORTC(BITBIGSFRlllll[1]), PORTB(BITBIGSFRlllll[1]), 
		 -> PORTA(BITBIGSFRlllll[1]), 

    lat_reg	PTR volatile unsigned char [5] size(2) Largest target is 1
		 -> LATE(BITBIGSFRllllh[1]), LATD(BITBIGSFRllllh[1]), LATC(BITBIGSFRllllh[1]), LATB(BITBIGSFRllllh[1]), 
		 -> LATA(BITBIGSFRlllll[1]), 

    tris_reg	PTR volatile unsigned char [5] size(2) Largest target is 1
		 -> TRISE(BITBIGSFRlllh[1]), TRISD(BITBIGSFRlllh[1]), TRISC(BITBIGSFRlllh[1]), TRISB(BITBIGSFRlllh[1]), 
		 -> TRISA(BITBIGSFRlllll[1]), 

    EEPROM_Read_Data@data	PTR unsigned char  size(2) Largest target is 1
		 -> val(COMRAM[1]), 

    sp__memset	PTR void  size(2) Largest target is 0

    lcd_4_bit_set_cursor@lcd	PTR const struct . size(2) Largest target is 6
		 -> lcd_4bit(COMRAM[6]), 

    send_4_bit_help@lcd	PTR const struct . size(2) Largest target is 6
		 -> lcd_4bit(COMRAM[6]), 

    send_4_bit_string_data_pos@data	PTR unsigned char  size(2) Largest target is 19
		 -> STR_3(CODE[19]), STR_2(CODE[19]), STR_1(CODE[19]), 

    send_4_bit_string_data_pos@lcd	PTR const struct . size(2) Largest target is 6
		 -> lcd_4bit(COMRAM[6]), 

    send_4_bit_enable@lcd	PTR const struct . size(2) Largest target is 6
		 -> lcd_4bit(COMRAM[6]), 

    send_4_bit_char_data@lcd	PTR const struct . size(2) Largest target is 6
		 -> lcd_4bit(COMRAM[6]), 

    send_4_bit_command@lcd	PTR const struct . size(2) Largest target is 6
		 -> lcd_4bit(COMRAM[6]), 

    lcd_pins_4_initialize@lcd	PTR const struct . size(2) Largest target is 6
		 -> lcd_4bit(COMRAM[6]), 

    get_value_RBX_interrupt@RBX.EXT_InterruptHandler_LOW	PTR FTN()void  size(2) Largest target is 1
		 -> NULL(), 

    get_value_RBX_interrupt@RBX.EXT_InterruptHandler_HIGH	PTR FTN()void  size(2) Largest target is 1
		 -> burrun3_interrupt(), 

    get_value_RBX_interrupt@RBX	PTR const struct . size(2) Largest target is 6
		 -> RB_obj_1(BANK0[6]), 

    get_value_RBX_interrupt@value	PTR unsigned char  size(2) Largest target is 1
		 -> rd_value(COMRAM[1]), 

    get_value_RBX_interrupt@keypad	PTR const struct . size(2) Largest target is 8
		 -> keypad(COMRAM[8]), 

    get_value_INTX_interrupt@INTX.externalfunction	PTR FTN()void  size(2) Largest target is 1
		 -> burrun2_interrupt(), burrun1_interrupt(), burrun0_interrupt(), 

    get_value_INTX_interrupt@INTX	PTR const struct . size(2) Largest target is 6
		 -> INT2_obj(BANK0[6]), INT1_obj(BANK0[6]), INT0_obj(BANK0[6]), 

    get_value_INTX_interrupt@value	PTR unsigned char  size(2) Largest target is 1
		 -> rd_value(COMRAM[1]), 

    get_value_INTX_interrupt@keypad	PTR const struct . size(2) Largest target is 8
		 -> keypad(COMRAM[8]), 

    keypad_pin_initialize@keypad	PTR const struct . size(2) Largest target is 8
		 -> keypad(COMRAM[8]), 

    S88$EXT_InterruptHandler_LOW	PTR FTN()void  size(2) Largest target is 1
		 -> NULL(), 

    RB_obj_1.EXT_InterruptHandler_LOW	PTR FTN()void  size(2) Largest target is 1
		 -> NULL(), 

    S88$EXT_InterruptHandler_HIGH	PTR FTN()void  size(2) Largest target is 1
		 -> burrun3_interrupt(), 

    RB_obj_1.EXT_InterruptHandler_HIGH	PTR FTN()void  size(2) Largest target is 1
		 -> burrun3_interrupt(), 

    INT2_obj.externalfunction	PTR FTN()void  size(2) Largest target is 1
		 -> burrun2_interrupt(), burrun1_interrupt(), burrun0_interrupt(), 

    INT1_obj.externalfunction	PTR FTN()void  size(2) Largest target is 1
		 -> burrun2_interrupt(), burrun1_interrupt(), burrun0_interrupt(), 

    S68$externalfunction	PTR FTN()void  size(2) Largest target is 1
		 -> burrun2_interrupt(), burrun1_interrupt(), burrun0_interrupt(), 

    INT0_obj.externalfunction	PTR FTN()void  size(2) Largest target is 1
		 -> burrun2_interrupt(), burrun1_interrupt(), burrun0_interrupt(), 


Critical Paths under _main in COMRAM

    _main->_EEPROM_Write_Data
    _main->_gpio_pin_write_logic
    _send_4_bit_char_data->_gpio_pin_write_logic
    _send_4_bit_command->_gpio_pin_write_logic
    _send_4_bit_help->_gpio_pin_write_logic
    _send_4_bit_enable->_gpio_pin_write_logic
    _keypad_pin_initialize->_gpio_pin_direction_intialize
    _gpio_pin_intialize->_gpio_pin_direction_intialize
    _gpio_pin_intialize->_gpio_pin_write_logic
    _Interrupt_RBX_intialize->_gpio_pin_direction_intialize
    _Interrupt_INTx_Pin_Init->_gpio_pin_direction_intialize

Critical Paths under _InterruptManager in COMRAM

    _InterruptManager->_RB4_ISR
    _RB4_ISR->_burrun3_interrupt
    _burrun3_interrupt->_get_value_RBX_interrupt
    _get_value_RBX_interrupt->_gpio_pin_read_logic
    _INT2_ISR->_burrun0_interrupt
    _INT2_ISR->_burrun1_interrupt
    _INT2_ISR->_burrun2_interrupt
    _INT1_ISR->_burrun0_interrupt
    _INT1_ISR->_burrun1_interrupt
    _INT1_ISR->_burrun2_interrupt
    _INT0_ISR->_burrun0_interrupt
    _INT0_ISR->_burrun1_interrupt
    _INT0_ISR->_burrun2_interrupt
    _burrun2_interrupt->_get_value_INTX_interrupt
    _burrun1_interrupt->_get_value_INTX_interrupt
    _burrun0_interrupt->_get_value_INTX_interrupt
    i2_send_4_bit_char_data->i2_send_4_bit_help
    i2_send_4_bit_help->i2_gpio_pin_write_logic
    i2_send_4_bit_enable->i2_gpio_pin_write_logic
    _get_value_INTX_interrupt->_gpio_pin_read_logic

Critical Paths under _main in BANK0

    _main->_send_4_bit_string_data_pos
    _send_4_bit_string_data_pos->_lcd_4_bit_set_cursor
    _send_4_bit_char_data->_send_4_bit_help
    _lcd_4_bit_set_cursor->_send_4_bit_command
    _application_initialize->_lcd_pins_4_initialize
    _lcd_pins_4_initialize->_send_4_bit_command
    _send_4_bit_command->_send_4_bit_help
    _send_4_bit_help->_gpio_pin_write_logic
    _send_4_bit_enable->_gpio_pin_write_logic
    _keypad_pin_initialize->_gpio_pin_intialize
    _gpio_pin_intialize->_gpio_pin_write_logic
    _Interrupt_RBX_intialize->_gpio_pin_direction_intialize
    _Interrupt_INTX_intialize->_Interrupt_INTx_Pin_Init
    _Interrupt_INTx_Pin_Init->_gpio_pin_direction_intialize
    _INTX_SET_HUNDLER_INTERRUPT->_INT0_SET_HUNDLER_INTERRUPT
    _INTX_SET_HUNDLER_INTERRUPT->_INT1_SET_HUNDLER_INTERRUPT
    _INTX_SET_HUNDLER_INTERRUPT->_INT2_SET_HUNDLER_INTERRUPT

Critical Paths under _InterruptManager in BANK0

    None.

Critical Paths under _main in BANK1

    None.

Critical Paths under _InterruptManager in BANK1

    None.

Critical Paths under _main in BANK2

    None.

Critical Paths under _InterruptManager in BANK2

    None.

Critical Paths under _main in BANK3

    None.

Critical Paths under _InterruptManager in BANK3

    None.

Critical Paths under _main in BANK4

    None.

Critical Paths under _InterruptManager in BANK4

    None.

Critical Paths under _main in BANK5

    None.

Critical Paths under _InterruptManager in BANK5

    None.

Critical Paths under _main in BANK6

    None.

Critical Paths under _InterruptManager in BANK6

    None.

Critical Paths under _main in BANK7

    None.

Critical Paths under _InterruptManager in BANK7

    None.

Critical Paths under _main in BANK8

    None.

Critical Paths under _InterruptManager in BANK8

    None.

Critical Paths under _main in BANK9

    None.

Critical Paths under _InterruptManager in BANK9

    None.

Critical Paths under _main in BANK10

    None.

Critical Paths under _InterruptManager in BANK10

    None.

Critical Paths under _main in BANK11

    None.

Critical Paths under _InterruptManager in BANK11

    None.

Critical Paths under _main in BANK12

    None.

Critical Paths under _InterruptManager in BANK12

    None.

Critical Paths under _main in BANK13

    None.

Critical Paths under _InterruptManager in BANK13

    None.

Critical Paths under _main in BANK14

    None.

Critical Paths under _InterruptManager in BANK14

    None.

Critical Paths under _main in BANK15

    None.

Critical Paths under _InterruptManager in BANK15

    None.

Call Graph Tables:

 ---------------------------------------------------------------------------------
 (Depth) Function   	        Calls       Base Space   Used Autos Params    Refs
 ---------------------------------------------------------------------------------
 (0) _main                                                 6     6      0   87825
                                             28 BANK0      5     5      0
                  _EEPROM_Write_Data
             _application_initialize
               _gpio_pin_write_logic
                 _send_4_bit_command
         _send_4_bit_string_data_pos
 ---------------------------------------------------------------------------------
 (1) _send_4_bit_string_data_pos                           7     1      6   32644
                                             22 BANK0      6     0      6
               _lcd_4_bit_set_cursor
               _send_4_bit_char_data
 ---------------------------------------------------------------------------------
 (2) _send_4_bit_char_data                                 4     1      3   14035
                                             13 BANK0      4     1      3
               _gpio_pin_write_logic
                  _send_4_bit_enable
                    _send_4_bit_help
 ---------------------------------------------------------------------------------
 (2) _lcd_4_bit_set_cursor                                 5     1      4   17290
                                             17 BANK0      5     1      4
                 _send_4_bit_command
 ---------------------------------------------------------------------------------
 (1) _application_initialize                               0     0      0   34627
           _Interrupt_INTX_intialize
            _Interrupt_RBX_intialize
              _keypad_pin_initialize
              _lcd_pins_4_initialize
 ---------------------------------------------------------------------------------
 (2) _lcd_pins_4_initialize                                6     4      2   22685
                                             17 BANK0      6     4      2
                 _gpio_pin_intialize
                 _send_4_bit_command
 ---------------------------------------------------------------------------------
 (3) _send_4_bit_command                                   4     1      3   16295
                                             13 BANK0      4     1      3
               _gpio_pin_write_logic
                  _send_4_bit_enable
                    _send_4_bit_help
 ---------------------------------------------------------------------------------
 (3) _send_4_bit_help                                      4     1      3    4725
                                              9 BANK0      4     1      3
               _gpio_pin_write_logic
 ---------------------------------------------------------------------------------
 (3) _send_4_bit_enable                                    3     1      2    4173
                                              9 BANK0      3     1      2
               _gpio_pin_write_logic
 ---------------------------------------------------------------------------------
 (2) _keypad_pin_initialize                                3     1      2    7111
                                             13 BANK0      2     0      2
       _gpio_pin_direction_intialize
                 _gpio_pin_intialize
 ---------------------------------------------------------------------------------
 (3) _gpio_pin_intialize                                   4     2      2    5752
                                              9 BANK0      4     2      2
       _gpio_pin_direction_intialize
               _gpio_pin_write_logic
 ---------------------------------------------------------------------------------
 (4) _gpio_pin_write_logic                                10     7      3    3677
                                             34 COMRAM     1     1      0
                                              0 BANK0      9     6      3
 ---------------------------------------------------------------------------------
 (2) _Interrupt_RBX_intialize                              5     3      2    1461
                                              8 BANK0      5     3      2
       _gpio_pin_direction_intialize
 ---------------------------------------------------------------------------------
 (2) _Interrupt_INTX_intialize                             3     1      2    3370
                                             10 BANK0      2     0      2
         _INTX_SET_HUNDLER_INTERRUPT
          _Interrupt_INTx_Clear_Flag
             _Interrupt_INTx_Disable
           _Interrupt_INTx_Edge_Init
              _Interrupt_INTx_Enable
            _Interrupt_INTx_Pin_Init
 ---------------------------------------------------------------------------------
 (3) _Interrupt_INTx_Pin_Init                              3     1      2    1142
                                              8 BANK0      2     0      2
       _gpio_pin_direction_intialize
 ---------------------------------------------------------------------------------
 (4) _gpio_pin_direction_intialize                         9     7      2     977
                                             34 COMRAM     1     1      0
                                              0 BANK0      8     6      2
 ---------------------------------------------------------------------------------
 (3) _Interrupt_INTx_Enable                                5     3      2     177
                                              0 BANK0      4     2      2
 ---------------------------------------------------------------------------------
 (3) _Interrupt_INTx_Edge_Init                             5     3      2     363
                                              0 BANK0      4     2      2
 ---------------------------------------------------------------------------------
 (3) _Interrupt_INTx_Disable                               5     3      2     267
                                              0 BANK0      4     2      2
 ---------------------------------------------------------------------------------
 (3) _Interrupt_INTx_Clear_Flag                            5     3      2     177
                                              0 BANK0      4     2      2
 ---------------------------------------------------------------------------------
 (3) _INTX_SET_HUNDLER_INTERRUPT                           5     3      2     744
                                              2 BANK0      4     2      2
         _INT0_SET_HUNDLER_INTERRUPT
         _INT1_SET_HUNDLER_INTERRUPT
         _INT2_SET_HUNDLER_INTERRUPT
 ---------------------------------------------------------------------------------
 (4) _INT2_SET_HUNDLER_INTERRUPT                           3     1      2     158
                                              0 BANK0      2     0      2
 ---------------------------------------------------------------------------------
 (4) _INT1_SET_HUNDLER_INTERRUPT                           3     1      2     158
                                              0 BANK0      2     0      2
 ---------------------------------------------------------------------------------
 (4) _INT0_SET_HUNDLER_INTERRUPT                           3     1      2     158
                                              0 BANK0      2     0      2
 ---------------------------------------------------------------------------------
 (1) _EEPROM_Write_Data                                    5     2      3     341
                                             34 COMRAM     1     1      0
                                              0 BANK0      3     0      3
 ---------------------------------------------------------------------------------
 Estimated maximum stack depth 4
 ---------------------------------------------------------------------------------
 (Depth) Function   	        Calls       Base Space   Used Autos Params    Refs
 ---------------------------------------------------------------------------------
 (6) _InterruptManager                                     8     8      0   47157
                                             26 COMRAM     8     8      0
                           _INT0_ISR
                           _INT1_ISR
                           _INT2_ISR
                            _RB4_ISR
 ---------------------------------------------------------------------------------
 (7) _RB4_ISR                                              1     1      0    4344
                                             25 COMRAM     1     1      0
                                NULL *
                  _burrun3_interrupt *
 ---------------------------------------------------------------------------------
 (8) _burrun3_interrupt                                    4     4      0    4300
                                             21 COMRAM     4     4      0
                   _EEPROM_Read_Data
            _get_value_RBX_interrupt
             i2_send_4_bit_char_data
 ---------------------------------------------------------------------------------
 (9) _get_value_RBX_interrupt                             12     6      6    1096
                                             10 COMRAM    11     5      6
                _gpio_pin_read_logic
 ---------------------------------------------------------------------------------
 (7) _INT2_ISR                                             0     0      0   14271
                                NULL *
                  _burrun0_interrupt *
                  _burrun1_interrupt *
                  _burrun2_interrupt *
 ---------------------------------------------------------------------------------
 (7) _INT1_ISR                                             0     0      0   14271
                                NULL *
                  _burrun0_interrupt *
                  _burrun1_interrupt *
                  _burrun2_interrupt *
 ---------------------------------------------------------------------------------
 (7) _INT0_ISR                                             0     0      0   14271
                                NULL *
                  _burrun0_interrupt *
                  _burrun1_interrupt *
                  _burrun2_interrupt *
 ---------------------------------------------------------------------------------
 (8) _burrun2_interrupt                                    4     4      0    4757
                                             21 COMRAM     4     4      0
                   _EEPROM_Read_Data
           _get_value_INTX_interrupt
             i2_send_4_bit_char_data
 ---------------------------------------------------------------------------------
 (8) _burrun1_interrupt                                    4     4      0    4757
                                             21 COMRAM     4     4      0
                   _EEPROM_Read_Data
           _get_value_INTX_interrupt
             i2_send_4_bit_char_data
 ---------------------------------------------------------------------------------
 (8) _burrun0_interrupt                                    4     4      0    4757
                                             21 COMRAM     4     4      0
                   _EEPROM_Read_Data
           _get_value_INTX_interrupt
             i2_send_4_bit_char_data
 ---------------------------------------------------------------------------------
 (9) i2_send_4_bit_char_data                               4     1      3    2500
                                             14 COMRAM     4     1      3
             i2_gpio_pin_write_logic
                i2_send_4_bit_enable
                  i2_send_4_bit_help
 ---------------------------------------------------------------------------------
 (10) i2_send_4_bit_help                                   4     1      3     873
                                             10 COMRAM     4     1      3
             i2_gpio_pin_write_logic
 ---------------------------------------------------------------------------------
 (10) i2_send_4_bit_enable                                 3     1      2     687
                                             10 COMRAM     3     1      2
             i2_gpio_pin_write_logic
 ---------------------------------------------------------------------------------
 (11) i2_gpio_pin_write_logic                             10     7      3     543
                                              0 COMRAM    10     7      3
 ---------------------------------------------------------------------------------
 (9) _get_value_INTX_interrupt                            12     6      6    1553
                                             10 COMRAM    11     5      6
                _gpio_pin_read_logic
 ---------------------------------------------------------------------------------
 (10) _gpio_pin_read_logic                                10     6      4     590
                                              0 COMRAM    10     6      4
 ---------------------------------------------------------------------------------
 (9) _EEPROM_Read_Data                                     5     1      4     704
                                              0 COMRAM     4     0      4
 ---------------------------------------------------------------------------------
 (8) NULL(Fake)                                            0     0      0       0
 ---------------------------------------------------------------------------------
 Estimated maximum stack depth 11
 ---------------------------------------------------------------------------------

 Call Graph Graphs:

 _main (ROOT)
   _EEPROM_Write_Data
   _application_initialize
     _Interrupt_INTX_intialize
       _INTX_SET_HUNDLER_INTERRUPT
         _INT0_SET_HUNDLER_INTERRUPT
         _INT1_SET_HUNDLER_INTERRUPT
         _INT2_SET_HUNDLER_INTERRUPT
       _Interrupt_INTx_Clear_Flag
       _Interrupt_INTx_Disable
       _Interrupt_INTx_Edge_Init
       _Interrupt_INTx_Enable
       _Interrupt_INTx_Pin_Init
         _gpio_pin_direction_intialize
     _Interrupt_RBX_intialize
       _gpio_pin_direction_intialize
     _keypad_pin_initialize
       _gpio_pin_direction_intialize
       _gpio_pin_intialize
         _gpio_pin_direction_intialize
         _gpio_pin_write_logic
     _lcd_pins_4_initialize
       _gpio_pin_intialize
       _send_4_bit_command
         _gpio_pin_write_logic
         _send_4_bit_enable
           _gpio_pin_write_logic
         _send_4_bit_help
           _gpio_pin_write_logic
   _gpio_pin_write_logic
   _send_4_bit_command
   _send_4_bit_string_data_pos
     _lcd_4_bit_set_cursor
       _send_4_bit_command
     _send_4_bit_char_data
       _gpio_pin_write_logic
       _send_4_bit_enable
       _send_4_bit_help

 _InterruptManager (ROOT)
   _INT0_ISR
     NULL(Fake) *
     _burrun0_interrupt *
       _EEPROM_Read_Data
       _get_value_INTX_interrupt
         _gpio_pin_read_logic
       i2_send_4_bit_char_data
         i2_gpio_pin_write_logic
         i2_send_4_bit_enable
           i2_gpio_pin_write_logic
         i2_send_4_bit_help
           i2_gpio_pin_write_logic
     _burrun1_interrupt *
       _EEPROM_Read_Data
       _get_value_INTX_interrupt
       i2_send_4_bit_char_data
     _burrun2_interrupt *
       _EEPROM_Read_Data
       _get_value_INTX_interrupt
       i2_send_4_bit_char_data
   _INT1_ISR
     NULL(Fake) *
     _burrun0_interrupt *
     _burrun1_interrupt *
     _burrun2_interrupt *
   _INT2_ISR
     NULL(Fake) *
     _burrun0_interrupt *
     _burrun1_interrupt *
     _burrun2_interrupt *
   _RB4_ISR
     NULL(Fake) *
     _burrun3_interrupt *
       _EEPROM_Read_Data
       _get_value_RBX_interrupt
         _gpio_pin_read_logic
       i2_send_4_bit_char_data

 Address spaces:
Name               Size   Autos  Total    Cost      Usage
BIGRAM             F7F      0       0      42        0.0%
EEDATA             400      0       0       0        0.0%
BITBANK14          100      0       0      32        0.0%
BANK14             100      0       0      33        0.0%
BITBANK13          100      0       0      30        0.0%
BANK13             100      0       0      31        0.0%
BITBANK12          100      0       0      28        0.0%
BANK12             100      0       0      29        0.0%
BITBANK11          100      0       0      26        0.0%
BANK11             100      0       0      27        0.0%
BITBANK10          100      0       0      24        0.0%
BANK10             100      0       0      25        0.0%
BITBANK9           100      0       0      22        0.0%
BANK9              100      0       0      23        0.0%
BITBANK8           100      0       0      20        0.0%
BANK8              100      0       0      21        0.0%
BITBANK7           100      0       0      18        0.0%
BANK7              100      0       0      19        0.0%
BITBANK6           100      0       0      16        0.0%
BANK6              100      0       0      17        0.0%
BITBANK5           100      0       0      14        0.0%
BANK5              100      0       0      15        0.0%
BITBANK4           100      0       0      12        0.0%
BANK4              100      0       0      13        0.0%
BITBANK3           100      0       0      10        0.0%
BANK3              100      0       0      11        0.0%
BITBANK2           100      0       0       8        0.0%
BANK2              100      0       0       9        0.0%
BITBANK1           100      0       0       6        0.0%
BANK1              100      0       0       7        0.0%
BITBANK15           80      0       0      34        0.0%
BANK15              80      0       0      35        0.0%
BITBANK0            80      0       0       4        0.0%
BANK0               80     21      73       5       89.8%
BITCOMRAM           7E      0       0       0        0.0%
COMRAM              7E     23      5C       1       73.0%
BITBIGSFRlhl        45      0       0      37        0.0%
BITBIGSFRlllh        F      0       0      38        0.0%
BITBIGSFRh           D      0       0      36        0.0%
BITBIGSFRllllh       4      0       0      39        0.0%
BITBIGSFRlllll       4      0       0      40        0.0%
BIGSFR               0      0       0     200        0.0%
BITSFR               0      0       0     200        0.0%
SFR                  0      0       0     200        0.0%
STACK                0      0       0       2        0.0%
NULL                 0      0       0       0        0.0%
ABS                  0      0      CF      41        0.0%
DATA                 0      0      CF       3        0.0%
CODE                 0      0       0       0        0.0%


Microchip Technology PIC18 Macro Assembler V2.41 build 20230208172133 
Symbol Table                                                                                   Mon Jan 01 16:21:09 2024

                        ??_InterruptManager 001B                          _send_4_bit_command 225A  
                        ?_send_4_bit_enable 00CA          __end_of_send_4_bit_string_data_pos 23C0  
                _send_4_bit_string_data_pos 234E                                          l80 268A  
                    ?_lcd_pins_4_initialize 00D2                   ??_get_value_RBX_interrupt 0011  
                       ?_send_4_bit_command 00CE                    _get_value_INTX_interrupt 1B44  
                      _lcd_4_bit_set_cursor 1A70                                         l111 1E08  
                                       l212 23BE                                         l223 1B40  
                                       l217 1F3A                                         l404 1708  
                                       l181 22D6                                         l229 1B42  
                                       l422 182C                                         l351 2766  
                                       l191 26DE                                         l352 2774  
                                       l176 14A4                                         l601 1950  
                                       l417 182A                                         l186 2258  
                                       l443 2430                                         l612 2520  
                                       l349 2758                                         l533 2634  
                                       l614 2526                                         l606 285C  
                                       l615 252C                                         l560 2506  
                                       l544 22F0                                         l633 28B6  
                                       l641 287A                                         l617 2570  
                                       l546 22FA                                         l555 24B6  
                                       l547 2304                                         l652 1EA8  
                                       l637 2898                                         l557 24BC  
                                       l549 234C                                         l558 24C2  
                                       l399 1706                                         l655 1242  
                                       l664 1368                                         l659 1362  
INT2_SET_HUNDLER_INTERRUPT@interrupt_hunder 00C1  INT1_SET_HUNDLER_INTERRUPT@interrupt_hunder 00C1  
INT0_SET_HUNDLER_INTERRUPT@interrupt_hunder 00C1                         ??_send_4_bit_enable 0024  
   EEPROM_Write_Data@global_iterrupr_status 0023                                         _arr 00A4  
                                       _cnt 003F                   _RB5_InterruptHandler_HIGH 0030  
                 __end_of_EEPROM_Write_Data 2776                                         _val 0040  
                                       prod 0FF3                ??_INT2_SET_HUNDLER_INTERRUPT 0023  
                                       tosl 0FFD                                         wreg 0FE8  
                           __end_of_RB4_ISR 27BA                                        l4101 1622  
                                      l4103 1638                                        l4105 169C  
                                      l4121 1F38                                        l4113 1EAA  
                               main@cnt_row 00DF                                        l4131 26A8  
                                      l4115 1EAA                                        l4301 1886  
                                      l4133 26BC                                        l4125 268C  
                                      l4117 1EBE                                        l4231 249E  
                                      l4303 188A                                        l4135 26DC  
                                      l4127 268C                                        l4119 1EC6  
                                      l4153 289A                                        l4161 287C  
                                      l4233 24B2                                        l4313 18CE  
                                      l4305 18A6                                        l5121 133C  
                                      l4081 174C                                        l4073 170A  
                                      l4129 26A0                                        l4401 1382  
                                      l4155 289A                                        l4163 287C  
                                      l4171 285E                                        l5131 1E8A  
                                      l4235 24B8                                        l4243 24C8  
                                      l4315 18EA                                        l4307 18AC  
                                      l5123 232E                                        l4083 175C  
                                      l4075 170E                                        l4411 13C6  
                                      l4403 13A6                                        l4157 28AE  
                                      l4165 2890                                        l4173 2872  
                                      l4341 1E36                                        l4333 1E0A  
                                      l4253 2508                                        l4229 249E  
                                      l5125 1932                                        l4317 18F0  
                                      l4309 18C8                                        l4325 1912  
                                      l4093 15E0                                        l4085 17BA  
                                      l4077 1722                                        l4181 226E  
                                      l4421 1420                                        l4413 13CA  
                                      l4159 28AE                                        l4167 2890  
                                      l4175 2872                                        l4343 1E3A  
                                      l4335 1E0A                                        l4255 2508  
                                      l5127 24E8                                        l4319 190C  
                                      l4095 15E4                                        l4079 1744  
                                      l4191 23C0                                        l4183 2276  
                                      l4431 146E                                        l4423 1426  
                                      l4415 13DA                                        l4511 1A92  
                                      l4503 1A70                                        l4601 274C  
                                      l4169 285E                                        l4337 1E1E  
                                      l4353 1E6A                                        l5129 2552  
                                      l4257 251C                                        l4361 22D8  
                                      l4097 15F8                                        l4281 2848  
                                      l4441 25D4                                        l4193 23D4  
                                      l4185 22D4                                        l4177 225A  
                                      l4433 1480                                        l4425 1438  
                                      l4417 13EC                                        l4409 13AA  
                                      l4521 1AFA                                        l4513 1AA2  
                                      l4505 1A76                                        l4603 274E  
                                      l4347 1E52                                        l4339 1E22  
                                      l4259 2522                                        l4267 2532  
                                      l4291 1842                                        l4363 22D8  
                                      l4099 161A                                        l4283 284C  
                                      l4451 261C                                        l4443 25E8  
                                      l4195 23F6                                        l4179 225A  
                                      l4435 1492                                        l4427 144A  
                                      l4419 13FE                                        l4523 1B14  
                                      l4515 1ABC                                        l4507 1A78  
                                      l4605 2752                                        l4293 1846  
                                      l4365 22EC                                        l4277 2834  
                                      l4453 2628                                        l4445 25EC  
                                      l4461 123E                                        l4197 23FE  
                                      l4189 23C0                                        l4429 145C  
                                      l4525 1B26                                        l4517 1ACE  
                                      l4509 1A8A                                        l4621 237E  
                                      l4613 234E                                        l4701 1182  
                                      l4607 2756                                        l4295 1862  
                                      l4287 182E                                        l4367 22F6  
                                      l4375 230E                                        l4279 2834  
                                      l4447 2604                                        l4439 25D4  
                                      l4471 12AA                                        l4463 1246  
                                      l4199 242E                                        l4391 1D7E  
                                      l4519 1AE8                                        l4527 1B40  
                                      l4623 239A                                        l4615 234E  
                                      l4711 11C2                                        l4703 1194  
                                      l4609 2772                                        l4297 1868  
                                      l4289 182E                                        l4449 2610  
                                      l4481 1312                                        l4473 12C2  
                                      l4465 1272                                        l4457 122A  
                                      l4385 1D66                                        l4625 23A0  
                                      l4617 2362                                        l4713 11D4  
                                      l4705 1198                                        l4299 1884  
                                      l4475 12D2                                        l4467 1282  
                                      l4483 1316                                        l4459 122A  
                                      l4387 1D66                                        l4395 136A  
                                      l4491 21DC                                        l4619 2366  
                                      l4715 11F2                                        l4707 11A0  
                                      l4651 1042                                        l4477 12EA  
                                      l4469 129A                                        l4389 1D7A  
                                      l4397 136A                                        l4493 21DC  
                                      l4717 120C                                        l4709 11B2  
                                      l4661 1070                                        l4591 273E  
                                      l4479 12FA                                        l4399 137E  
                                      l4583 2636                                        l4495 21F0  
                                      l4719 121E                                        l4663 108C  
                                      l4647 103E                                        l4593 2742  
                                      l4585 272E                                        l4497 21F8  
                                      l4681 10BE                                        l4657 104C  
                                      l4649 103E                                        l4595 2746  
                                      l4587 272E                                        l4499 2256  
                                      l4691 110A                                        l4683 10D4  
                                      l4675 1096                                        l4659 106A  
                                      l4597 2748                                        l4589 2736  
                                      l4693 111A                                        l4685 10D8  
                                      l4677 10AC                                        l4669 1092  
                                      l4599 274A                                        l4695 112C  
                                      l4687 10E8                                        l4679 10AE  
                                      l4697 114A                                        l4689 10F8  
                                      l4699 1168                                        STR_1 1027  
                                      STR_2 1001                                        STR_3 1014  
                                      STR_4 103A                        i2send_4_bit_help@lcd 000B  
                                      _LATA 0F89                                        _LATB 0F8A  
                                      _LATC 0F8B                                        u4000 10E8  
                                      _LATD 0F8C                                        u4001 10E4  
                                      _LATE 0F8D                                        u4010 110A  
                                      u4011 1106                                        u4020 111A  
                                      u4021 1116                                        u4030 11B2  
                                      u4031 11AE                                        u4040 11C2  
                      i2send_4_bit_help@ret 000E                                        u4041 11BE  
                                      u3420 182A                                        u3404 177C  
                                      u3500 26A0                                        u3421 1826  
                                      u3405 1778                                        u3501 269C  
                                      u3430 15F8                                        u3414 17DA  
                                      u3431 15F4                                        u3415 17D6  
                                      u3520 28AE                                        u3440 161A  
                                      u3521 28AA                                        u3441 1616  
                                      u3530 2890                                        u3610 24B2  
                                      u3450 1638                                        u3370 1722  
                                      u3531 288C                                        u3611 24AE  
                                      u3451 1634                                        u3371 171E  
                                      u3540 2872                                        u3620 251C  
                                      u3700 190C                                        u3380 1744  
                                      u3541 286E                                        u3621 2518  
                                      u3701 1908                                        u3381 1740  
                                      u3710 1E1E                                        u3630 2848  
                                      u3390 175C                                        u3550 226E  
                                      u3711 1E1A                                        u3631 2844  
                                      u3391 1758                                        u3551 226A  
                                      u4247 1174                                        u3640 1842  
                                      u3720 22EC                                        u3480 1706  
                                      u3464 1658                                        u3560 23D4  
                                      u3800 1AA2                                        u3641 183E  
                                      u3721 22E8                                        u3481 1702  
                                      u3465 1654                                        u3561 23D0  
                                      u3801 1A9E                                        u4257 11FE  
                                      u3650 1862                                        u3474 16BC  
                                      u3570 23F6                                        u3730 1D7A  
                                      u3490 1EBE                                        u3810 1ACE  
                                      u3651 185E                                        u3475 16B8  
                                      u3571 23F2                                        u3731 1D76  
                                      u3491 1EBA                                        u4267 13E2  
                                      u3811 1ACA                                        u3660 1884  
                                      u3740 137E                                        u3820 1AFA  
                                      u3661 1880                                        u4277 1406  
                                      u3741 137A                                        u3821 1AF6  
                                      u3670 18A6                                        u3750 13DA  
                                      u3830 1B26                                        u3671 18A2  
                                      u4287 1422                                        u3751 13D6  
                                      u3831 1B22                                        u3920 2766  
                                      u3680 18C8                                        u3760 25E8  
                                      u3921 2762                                        u3681 18C4  
                                      u3761 25E4                                        u3690 18EA  
                                      u3770 123E                                        u3691 18E6  
                                      u3771 123A                                        u3780 21F0  
                                      u3940 2362                                        u3781 21EC  
                                      u3941 235E                                        u3790 1A8A  
                                      u3950 23BE                                        u3935 2770  
                                      u3791 1A86                                        u3951 23BA  
                                      u3936 2772                                        u3980 108C  
                                      u3981 1088                                        u3990 10BE  
                                      u3991 10BA                                        i2l92 21DA  
                                      i2l84 2154                                        i2l88 20CE  
                                      i2l96 2048                       ?_send_4_bit_char_data 00CE  
                      ??_send_4_bit_command 0024                    _RB4_InterruptHandler_LOW 0036  
                                      _main 103E                    _RB7_InterruptHandler_LOW 002A  
                                      fsr1h 0FE2                                        fsr2h 0FDA  
                                      indf1 0FE7                                        indf2 0FDF  
                                      fsr1l 0FE1                                        fsr2l 0FD9  
                                      btemp 005D                                        prodh 0FF4  
                                      prodl 0FF3                   __end_of_send_4_bit_enable 26E0  
                                      start 000E                      ?_keypad_pin_initialize 00CE  
                              ___param_bank 0000                        _gpio_pin_write_logic 170A  
           __end_of_Interrupt_RBX_intialize 136A                            __end_of_INT0_ISR 290C  
                          __end_of_INT1_ISR 28F0                            __end_of_INT2_ISR 28D4  
                     ?_lcd_4_bit_set_cursor 00D2                   ?_Interrupt_INTx_Edge_Init 00C1  
                                     ?_main 0001                    ??_application_initialize 0024  
                                     _EEADR 0FA9                                       i2l135 1C02  
                                     i2l217 1FC2                                       i2l145 1CBE  
                                     i2l422 1A6E                                       i2l191 272C  
                                     i2l417 1A6C                                       i2l186 249C  
                                     i2l357 2832                                       i2l429 1D64  
                                     i2l621 290A                                       i2l625 28EE  
                                     i2l629 28D2                                       i2l741 1572  
                                     i2l735 14E8                                       i2l680 27B8  
                                     i2l744 15BC                                       i2l737 1508  
                                     i2l739 1528                                       _PORTA 0F80  
                                     _PORTB 0F81                                       _PORTC 0F82  
                                     _PORTD 0F83                                       _PORTE 0F84  
                                     _TRISA 0F92                                       _TRISB 0F93  
                                     _TRISC 0F94                                       _TRISD 0F95  
                                     _TRISE 0F96                 keypad_pin_initialize@keypad 00CE  
                                     main@i 00E0                                       pclath 0FFA  
                                     pclatu 0FFB                                       tablat 0FF5  
               __end_ofi2_send_4_bit_enable 272E                       EEPROM_Write_Data@data 00C3  
           __end_of_get_value_RBX_interrupt 1CC0                     __end_of_send_4_bit_help 1F3C  
                                     ttemp5 005E                                       ttemp6 0061  
                                     ttemp7 0065                                       status 0FD8  
                                     wtemp8 005E                      _Interrupt_INTx_Disable 249E  
                  _Interrupt_INTX_intialize 25D4                             __initialization 2572  
                              __end_of_main 122A                   i2gpio_pin_write_logic@ret 000A  
                     ?_gpio_pin_write_logic 00C1               i2send_4_bit_help@data_command 000D  
               i2gpio_pin_write_logic@logic 0003                    gpio_pin_read_logic@logic 0003  
                  __end_of_EEPROM_Read_Data 2834                                      ??_main 00DD  
                             __activetblptr 0003                 ?_INT1_SET_HUNDLER_INTERRUPT 00C1  
                                 ??_RB4_ISR 001A            send_4_bit_string_data_pos@column 00DA  
                    i2send_4_bit_enable@lcd 000B                      i2send_4_bit_enable@ret 000D  
                                    _EEADRH 0FAA                                      _EEDATA 0FA8  
                                    _EECON2 0FA7                      ??_send_4_bit_char_data 0024  
                                    i2l3001 1C1A                                      i2l3003 1C2C  
                                    i2l3021 1CAE                                      i2l3013 1C46  
                                    i2l3005 1C3E                                      i2l3015 1C5E  
                                    i2l3007 1C42                                      i2l3017 1C6E  
                                    i2l3203 2432                                      i2l3019 1CAC  
                                    i2l3205 2432                                      i2l4021 14F6  
                                    i2l3207 2444                                      i2l4031 1544  
                                    i2l4023 1504                                      i2l4015 14C8  
                                    i2l3209 2448                                      i2l3321 20FC  
                                    i2l4041 158E                                      i2l4033 1552  
                                    i2l4025 1516                                      i2l4017 14D6  
                                    i2l3323 210E                                      i2l4043 159C  
                                    i2l4035 1564                                      i2l4027 1524  
                                    i2l4019 14E4                                      i2l3325 2124  
                                    i2l3317 20D0                                      i2l4045 15AE  
                                    i2l4037 156C                                      i2l4029 1536  
                                    i2l3327 214E                                      i2l3319 20EC  
                                    i2l3351 209E                                      i2l3343 204A  
                                    i2l4047 15B6                                      i2l4039 1580  
                                    i2l2801 19FE                                      i2l3361 2182  
                                    i2l3329 2152                                      i2l3353 20C8  
                                    i2l3345 2066                Interrupt_INTx_Enable@int_obj 00C1  
                                    i2l3363 2194                                      i2l3355 20CC  
                                    i2l3347 2076                                      i2l3531 28F2  
                                    i2l3371 1FC4                                      i2l3365 21AA  
                                    i2l3357 2156                                      i2l3349 2088  
                                    i2l3533 28D4                                      i2l3381 2042  
                                    i2l3373 1FE0                                      i2l3541 2778  
                                    i2l2831 1CC4                                      i2l2911 26F2  
                                    i2l3367 21D4                                      i2l3359 2172  
                                    i2l3535 28D6                                      i2l3383 2046  
                                    i2l3375 1FF0                                      i2l3543 277A  
                                    i2l2833 1CD6                                      i2l2913 26FA  
                                    i2l2921 1F3C                                      i2l3369 21D8  
                                    i2l3529 28F0                                      i2l3537 28B8  
                                    i2l3377 2002                                      i2l3545 278A  
                                    i2l2835 1CF8                                      i2l2915 270E  
                                    i2l2907 26E0                                      i2l2923 1F3C  
                                    i2l3539 28BA                                      i2l3379 2018  
                                    i2l3547 279C                                      i2l2837 1D00  
                                    i2l2829 1CC0                                      i2l2917 272A  
                                    i2l2909 26E0                                      i2l2925 1F4E  
                                    i2l3549 27B8                                      i2l2839 1D62  
                                    i2l2951 1B6C                                      i2l2791 1956  
                                    i2l2927 1F56                                      i2l2961 1B86  
                                    i2l2953 1B7E                                      i2l2945 1B44  
                                    i2l2793 1968                                      i2l2929 1FC0  
                                    i2l2971 1BF2                                      i2l2963 1B9E  
                                    i2l2955 1B82                                      i2l2947 1B48  
                                    i2l2795 198A                                      i2l2981 2818  
                                    i2l2973 27FC                                      i2l2965 1BAE  
                                    i2l2949 1B5A                                      i2l2797 1992  
                                    i2l2789 1952                                      i2l2991 2824  
                                    i2l2983 281C                                      i2l2975 27FC  
                                    i2l2967 1BEC                                      i2l2799 19A2  
                                    i2l2993 2826                                      i2l2985 281E  
                                    i2l2977 280E                                      i2l2969 1BF0  
                                    i2l2987 2820                                      i2l2979 2812  
                                    i2l2989 2822                                      i2l2997 1C04  
                                    i2l2999 1C08                  ?_Interrupt_INTx_Clear_Flag 00C1  
                     send_4_bit_command@lcd 00CE                       send_4_bit_command@ret 00D1  
                    _INT0_HUNDLER_INTERRUPT 003C              get_value_INTX_interrupt@keypad 000B  
                                    _cnt_pw 003E                      ??_lcd_4_bit_set_cursor 0024  
                                    _keypad 004F                                      clear_0 25B8  
                                    clear_1 25C4                                      isa$std 0001  
             __end_of_Interrupt_INTx_Enable 234E                                      _psw_st 004E  
         INTX_SET_HUNDLER_INTERRUPT@int_obj 00C3          __end_of_INT2_SET_HUNDLER_INTERRUPT 287C  
                _INT2_SET_HUNDLER_INTERRUPT 285E                                __pdataCOMRAM 0042  
                              __mediumconst 0000                                      tblptrh 0FF7  
                                    tblptrl 0FF6                                      tblptru 0FF8  
               ?_INTX_SET_HUNDLER_INTERRUPT 00C3                                  __accesstop 0080  
                   __end_of__initialization 25CA                            ?_send_4_bit_help 00CA  
                                 ?_INT0_ISR 0001                                   ?_INT1_ISR 0001  
                                 ?_INT2_ISR 0001                               ___rparam_used 0001  
         __end_of_Interrupt_INTx_Clear_Flag 2572                  ??_get_value_INTX_interrupt 0011  
                   _Interrupt_INTx_Pin_Init 2834                      ??_gpio_pin_write_logic 00C4  
                   ??_lcd_pins_4_initialize 00D4                              __pcstackCOMRAM 0001  
                  lcd_pins_4_initialize@lcd 00D2                    lcd_pins_4_initialize@ret 00D7  
                              __pidataBANK0 27BA                 ?_send_4_bit_string_data_pos 00D7  
        get_value_INTX_interrupt@pin_row_st 0014                get_value_INTX_interrupt@INTX 000D  
                      fp__burrun0_interrupt 0000                                  __pbssBANK0 00E2  
                   ??_keypad_pin_initialize 0024                        fp__burrun1_interrupt 0000  
                                ??_INT0_ISR 001A                                  ??_INT1_ISR 001A  
                                ??_INT2_ISR 001A                      _application_initialize 2636  
          __end_of_Interrupt_INTx_Edge_Init 1952                        fp__burrun2_interrupt 0000  
                  ??i2_send_4_bit_char_data 0012                        fp__burrun3_interrupt 0000  
                   send_4_bit_char_data@lcd 00CE                     send_4_bit_char_data@ret 00D1  
              ??_INT0_SET_HUNDLER_INTERRUPT 0023                                     _RB4_ISR 2776  
                 _RB6_InterruptHandler_HIGH 002C            i2gpio_pin_write_logic@Pin_Config 0001  
            gpio_pin_write_logic@Pin_Config 00C1                  ??_Interrupt_INTX_intialize 0024  
                   ?_Interrupt_INTx_Disable 00C1                    _RB6_InterruptHandler_LOW 002E  
                 ??_Interrupt_INTx_Pin_Init 0024                                     __Hparam 0000  
              lcd_pins_4_initialize@cnt_pin 00D6                                     __Lparam 0000  
                  ?_get_value_RBX_interrupt 000B                         _gpio_pin_read_logic 1CC0  
                              __psmallconst 1000                  __end_of_gpio_pin_intialize 2432  
                                   __pcinit 2572                                     __ramtop 1000  
                                   __ptext0 103E                                     __ptext1 234E  
                                   __ptext2 21DC                                     __ptext3 1A70  
                                   __ptext4 2636                                     __ptext5 136A  
                                   __ptext6 225A                                     __ptext7 1EAA  
                                   __ptext8 268C                                     __ptext9 1D66  
                         ?_EEPROM_Read_Data 0001                                  _keypad_val 0080  
                                   _lat_reg 0042                          ??_EEPROM_Read_Data 0005  
                      ?_gpio_pin_read_logic 0001              __end_of_Interrupt_INTx_Disable 2508  
                  ??i2_gpio_pin_write_logic 0004                  i2send_4_bit_char_data@data 0011  
                            __pintcode_body 14A6                        end_of_initialization 25CA  
                   _Interrupt_RBX_intialize 122A                                     int_func 14A6  
               ??_Interrupt_INTx_Clear_Flag 00C3            __end_of_get_value_INTX_interrupt 1C04  
                     gpio_pin_intialize@ret 00CD                                     postdec1 0FE5  
                                   postdec2 0FDD                    _Interrupt_INTx_Edge_Init 182E  
                                   postinc0 0FEE                                     postinc2 0FDE  
                                 _PORTBbits 0F81                            _InterruptManager 0008  
               ?_INT2_SET_HUNDLER_INTERRUPT 00C1           get_value_RBX_interrupt@pin_row_st 0014  
      __end_of_gpio_pin_direction_intialize 170A                _gpio_pin_direction_intialize 15E0  
                     ??_gpio_pin_read_logic 0005                      _INT1_HUNDLER_INTERRUPT 003A  
            send_4_bit_string_data_pos@data 00DB               __end_of_lcd_pins_4_initialize 14A6  
                             __pidataCOMRAM 290C               Interrupt_INTx_Disable@int_obj 00C1  
        __end_of_INT0_SET_HUNDLER_INTERRUPT 28B8                  _INT0_SET_HUNDLER_INTERRUPT 289A  
                 _Interrupt_INTx_Clear_Flag 2508                       _Interrupt_INTx_Enable 22D8  
                       start_initialization 2572                   ??_Interrupt_RBX_intialize 00CB  
             ?_gpio_pin_direction_intialize 00C1                gpio_pin_intialize@Pin_Config 00CA  
                      send_4_bit_enable@lcd 00CA                        send_4_bit_enable@ret 00CC  
                   ?_application_initialize 0001                  get_value_RBX_interrupt@RBX 000D  
                get_value_RBX_interrupt@cnt 0015                      i2_send_4_bit_char_data 2432  
             __end_of_keypad_pin_initialize 1E0A               get_value_INTX_interrupt@value 000F  
            Interrupt_RBX_intialize@int_obj 00C9                                 __pdataBANK0 0080  
              cnvert_uint16_to_string@F3221 00ED                cnvert_uint32_to_string@F3228 00E2  
                                  ?_RB4_ISR 0001                                 __pbssCOMRAM 0024  
                 ?_get_value_INTX_interrupt 000B                               __pcstackBANK0 00C1  
            __end_of_application_initialize 268C      gpio_pin_direction_intialize@Pin_Config 00C1  
                        send_4_bit_help@lcd 00CA                          send_4_bit_help@ret 00CD  
                 send_4_bit_command@command 00D0             gpio_pin_direction_intialize@ret 0023  
                                 __pintcode 0008                      i2_gpio_pin_write_logic 1952  
                         i2_send_4_bit_help 1F3C                   gpio_pin_write_logic@logic 00C3  
                        ?i2_send_4_bit_help 000B                      ?_Interrupt_INTx_Enable 00C1  
                               __smallconst 1000                   _RB4_InterruptHandler_HIGH 0034  
              ??_INT1_SET_HUNDLER_INTERRUPT 0023                   _RB7_InterruptHandler_HIGH 0028  
               send_4_bit_help@data_command 00CC                         ??i2_send_4_bit_help 000E  
                       i2_send_4_bit_enable 26E0                          _gpio_pin_intialize 23C0  
           Interrupt_INTx_Edge_Init@int_obj 00C1                    send_4_bit_char_data@data 00D0  
                __end_of_send_4_bit_command 22D8              ??_gpio_pin_direction_intialize 00C3  
                ??_Interrupt_INTx_Edge_Init 00C3                    _RB5_InterruptHandler_LOW 0032  
                                  _INT0_ISR 28F0                                    _INT1_ISR 28D4  
                                  _INT2_ISR 28B8                                    _RB4_Flag 004C  
                 i2send_4_bit_char_data@lcd 000F                   i2send_4_bit_char_data@ret 0012  
                                  _INT0_obj 00BB                                    _INT1_obj 00B5  
                                  _INT2_obj 00AF                           RB4_ISR@RB4_Source 001A  
                       ?_gpio_pin_intialize 00CA                    __end_of_InterruptManager 15E0  
                                  i2u200_40 1F4E                                    i2u200_41 1F4A  
                                  i2u202_40 1B5A                                    i2u210_40 1C3E  
                                  i2u202_41 1B56                                    i2u210_41 1C3A  
                                  i2u203_40 1B6C                                    i2u211_40 1C6E  
                                  i2u203_41 1B68                                    i2u211_41 1C6A  
                                  i2u204_40 1B7E                                    i2u212_40 1CBE  
                                  i2u204_41 1B7A                                    i2u212_41 1CBA  
                                  i2u205_40 1BAE                                    i2u205_41 1BAA  
                                  i2u206_40 1C02                                    i2u230_40 2444  
                                  i2u206_41 1BFE                                    i2u230_41 2440  
                                  i2u207_40 280E                                    i2u207_41 280A  
                                  i2u208_40 1C1A                                    i2u240_40 2042  
                                  i2u208_41 1C16                                    i2u240_41 203E  
                                  i2u209_40 1C2C                                    i2u209_41 1C28  
                                  i2u330_40 1544                                    i2u330_41 1540  
                                  i2u331_40 1552                                    i2u323_40 14D6  
                                  i2u331_41 154E                                    i2u323_41 14D2  
                                  i2u180_40 19A2                                    i2u236_40 214E  
                                  i2u332_40 1564                                    i2u324_40 14E4  
                                  i2u180_41 199E                                    i2u236_41 214A  
                                  i2u332_41 1560                                    i2u324_41 14E0  
                                  i2u260_48 28F8                                    i2u333_40 1580  
                                  i2u325_40 14F6                                    i2u260_49 290A  
                                  i2u333_41 157C                                    i2u325_41 14F2  
                                  i2u181_44 19C2                                    i2u181_45 19BE  
                                  i2u190_40 1CD6                                    i2u238_40 20C8  
                                  i2u261_48 28DC                                    i2u334_40 158E  
                                  i2u326_40 1504                                    i2u190_41 1CD2  
                                  i2u238_41 20C4                                    i2u261_49 28EE  
                                  i2u334_41 158A                                    i2u326_41 1500  
                                  i2u182_44 1A1E                                    i2u182_45 1A1A  
                                  i2u430_47 2092                                    i2u191_40 1CF8  
                                  i2u183_40 1A6C                                    i2u239_40 21D4  
                                  i2u262_48 28C0                                    i2u263_40 278A  
                                  i2u335_40 159C                                    i2u327_40 1516  
                                  i2u191_41 1CF4                                    i2u183_41 1A68  
                                  i2u239_41 21D0                                    i2u262_49 28D2  
                                  i2u263_41 2786                                    i2u335_41 1598  
                                  i2u327_41 1512                                    i2u431_47 2118  
                      ?i2_send_4_bit_enable 000B                                    i2u264_40 279C  
                                  i2u336_40 15AE                                    i2u328_40 1524  
                                  i2u264_41 2798                                    i2u336_41 15AA  
                                  i2u328_41 1520                                    i2u192_44 1D4E  
                                  i2u192_45 1D4A                                    i2u432_47 219E  
                                  i2u329_40 1536                                    i2u329_41 1532  
                                  i2u178_40 1968                                    i2u265_48 27A2  
                                  i2u178_41 1964                                    i2u265_49 27B4  
                                  i2u179_40 198A                                    i2u179_41 1986  
                                  i2u429_47 200C                                    i2u199_40 26F2  
                                  i2u199_41 26EE                   __end_ofi2_send_4_bit_help 1FC4  
            Interrupt_INTx_Pin_Init@int_obj 00C9                   ?_Interrupt_INTX_intialize 00CB  
                                  _RB_obj_1 00A9                        ??_gpio_pin_intialize 00CC  
                         ??_send_4_bit_help 0024               send_4_bit_string_data_pos@lcd 00D7  
             send_4_bit_string_data_pos@row 00D9                     gpio_pin_write_logic@ret 0023  
              ??_INTX_SET_HUNDLER_INTERRUPT 00C5                                 _INTCON2bits 0FF1  
                               _INTCON3bits 0FF0                                   copy_data0 2586  
                                 copy_data1 25A6                    ?_Interrupt_INTx_Pin_Init 00C9  
                    gpio_pin_read_logic@ret 000A                                  _EECON1bits 0FA6  
                     ??i2_send_4_bit_enable 000D                                    __Hrparam 0000  
                                  __Lrparam 0000                  Interrupt_RBX_intialize@ret 00CD  
              ??_send_4_bit_string_data_pos 0024                __end_of_send_4_bit_char_data 225A  
               __end_of_gpio_pin_read_logic 1D66                 ?_INT0_SET_HUNDLER_INTERRUPT 00C1  
                                  _lcd_4bit 0057             Interrupt_INTX_intialize@int_obj 00CB  
                                  __ptext10 23C0                                    __ptext11 170A  
                                  __ptext20 1E0A                                    __ptext12 122A  
                                  __ptext21 285E                                    __ptext13 25D4  
                                  __ptext30 28D4                                    __ptext22 287C  
                                  __ptext14 2834                                    __ptext31 28F0  
                                  __ptext23 289A                                    __ptext15 15E0  
                                  __ptext40 1CC0                                    __ptext32 204A  
                                  __ptext24 272E                                    __ptext16 22D8  
                                  __ptext41 27FC                                    __ptext33 20D0  
                                  __ptext17 182E                                    __ptext42 0000  
                                  __ptext34 2156                                    __ptext26 2776  
                                  __ptext18 249E                                    __ptext35 2432  
                                  __ptext27 1FC4                                    __ptext19 2508  
                                  __ptext36 1F3C                                    __ptext28 1C04  
                                  __ptext37 26E0                                    __ptext29 28B8  
                                  __ptext38 1952                                    __ptext39 1B44  
                   ?i2_send_4_bit_char_data 000F               get_value_RBX_interrupt@keypad 000B  
          Interrupt_INTx_Clear_Flag@int_obj 00C1                __end_of_lcd_4_bit_set_cursor 1B44  
             gpio_pin_read_logic@Pin_Config 0001                 cnvert_uint8_to_string@F3214 0024  
               get_value_INTX_interrupt@cnt 0015                                    _rd_value 0041  
                      EEPROM_Read_Data@data 0003                                    isa$xinst 0000  
                    _INT2_HUNDLER_INTERRUPT 0038                                    int$flags 005D  
                                  _port_reg 0090                           _burrun0_interrupt 20D0  
                                  _tris_reg 009A                          ?_burrun0_interrupt 0001  
                     _lcd_pins_4_initialize 136A                     EEPROM_Read_Data@addrees 0001  
        __end_of_INT1_SET_HUNDLER_INTERRUPT 289A                  _INT1_SET_HUNDLER_INTERRUPT 287C  
                  ??_Interrupt_INTx_Disable 00C3                     lcd_4_bit_set_cursor@lcd 00D2  
                         _burrun1_interrupt 204A                     lcd_4_bit_set_cursor@ret 00D6  
                   lcd_4_bit_set_cursor@row 00D4                                  _INTCONbits 0FF2  
                   _get_value_RBX_interrupt 1C04             __end_of_Interrupt_INTx_Pin_Init 285E  
            __end_ofi2_send_4_bit_char_data 249E                         ??_burrun0_interrupt 0016  
                        ?_burrun1_interrupt 0001                __end_of_gpio_pin_write_logic 182E  
                         _burrun2_interrupt 2156                                    intlevel2 0000  
                lcd_4_bit_set_cursor@column 00D5                            _EEPROM_Read_Data 27FC  
                       ??_burrun1_interrupt 0016                          ?_burrun2_interrupt 0001  
                  EEPROM_Write_Data@addrees 00C1                get_value_RBX_interrupt@value 000F  
                         _burrun3_interrupt 1FC4                     ?i2_gpio_pin_write_logic 0001  
                       ??_burrun2_interrupt 0016                       _keypad_pin_initialize 1D66  
                 __end_of_burrun0_interrupt 2156                          ?_burrun3_interrupt 0001  
                   ??_Interrupt_INTx_Enable 00C3                         ??_burrun3_interrupt 0016  
                 __end_of_burrun1_interrupt 20D0                    ?_Interrupt_RBX_intialize 00C9  
        __end_of_INTX_SET_HUNDLER_INTERRUPT 1EAA                  _INTX_SET_HUNDLER_INTERRUPT 1E0A  
                         _EEPROM_Write_Data 272E                   __end_of_burrun2_interrupt 21DC  
                        ?_EEPROM_Write_Data 00C1            __end_of_Interrupt_INTX_intialize 2636  
                 __end_of_burrun3_interrupt 204A                        _send_4_bit_char_data 21DC  
            __end_ofi2_gpio_pin_write_logic 1A70                         ??_EEPROM_Write_Data 0023  
                         ?_InterruptManager 0001                           _send_4_bit_enable 268C  
                           _send_4_bit_help 1EAA  
